	.file	"debug.cpp"
	.text
.Ltext0:
	.type	_ZL4outbth, @function
_ZL4outbth:
.LFB0:
	.file 1 "tools.h"
	.loc 1 33 0
	.cfi_startproc
	pushl	%ebp
.LCFI0:
	.cfi_def_cfa_offset 8
	.cfi_offset 5, -8
	movl	%esp, %ebp
.LCFI1:
	.cfi_def_cfa_register 5
	subl	$8, %esp
	movl	8(%ebp), %edx
	movl	12(%ebp), %eax
	movw	%dx, -4(%ebp)
	movb	%al, -8(%ebp)
	.loc 1 34 0
	movzbl	-8(%ebp), %eax
	movzwl	-4(%ebp), %edx
#APP
# 34 "tools.h" 1
	outb %al,%dx
# 0 "" 2
	.loc 1 35 0
#NO_APP
	leave
.LCFI2:
	.cfi_restore 5
	.cfi_def_cfa 4, 4
	ret
	.cfi_endproc
.LFE0:
	.size	_ZL4outbth, .-_ZL4outbth
	.type	_ZL3inbt, @function
_ZL3inbt:
.LFB3:
	.loc 1 48 0
	.cfi_startproc
	pushl	%ebp
.LCFI3:
	.cfi_def_cfa_offset 8
	.cfi_offset 5, -8
	movl	%esp, %ebp
.LCFI4:
	.cfi_def_cfa_register 5
	pushl	%ebx
	subl	$20, %esp
	.cfi_offset 3, -12
	movl	8(%ebp), %eax
	movw	%ax, -24(%ebp)
.LBB2:
	.loc 1 50 0
	movzwl	-24(%ebp), %edx
	movw	%dx, -22(%ebp)
	movzwl	-22(%ebp), %edx
#APP
# 50 "tools.h" 1
	inb %dx,%al
# 0 "" 2
#NO_APP
	movl	%eax, %ebx
	movb	%bl, -5(%ebp)
	.loc 1 51 0
	movzbl	-5(%ebp), %eax
.LBE2:
	.loc 1 52 0
	addl	$20, %esp
	popl	%ebx
	.cfi_restore 3
	popl	%ebp
.LCFI5:
	.cfi_restore 5
	.cfi_def_cfa 4, 4
	ret
	.cfi_endproc
.LFE3:
	.size	_ZL3inbt, .-_ZL3inbt
	.local	_ZL13s_framebuffer
	.comm	_ZL13s_framebuffer,4,4
	.type	_ZL15Get_Framebufferv, @function
_ZL15Get_Framebufferv:
.LFB7:
	.file 2 "debug.cpp"
	.loc 2 13 0
	.cfi_startproc
	pushl	%ebp
.LCFI6:
	.cfi_def_cfa_offset 8
	.cfi_offset 5, -8
	movl	%esp, %ebp
.LCFI7:
	.cfi_def_cfa_register 5
	pushl	%ebx
	.cfi_offset 3, -12
	.loc 2 15 0
	movl	_ZL13s_framebuffer, %eax
	testl	%eax, %eax
	jne	.L5
	.loc 2 16 0
	movl	$virt, %eax
	movl	%eax, %edx
	sarl	$31, %edx
	movl	$phys, %ecx
	movl	%ecx, %ebx
	sarl	$31, %ebx
	subl	%ecx, %eax
	sbbl	%ebx, %edx
	addl	$753664, %eax
	movl	%eax, _ZL13s_framebuffer
.L5:
	.loc 2 17 0
	movl	_ZL13s_framebuffer, %eax
	.loc 2 18 0
	popl	%ebx
	.cfi_restore 3
	popl	%ebp
.LCFI8:
	.cfi_restore 5
	.cfi_def_cfa 4, 4
	ret
	.cfi_endproc
.LFE7:
	.size	_ZL15Get_Framebufferv, .-_ZL15Get_Framebufferv
	.section	.rodata
.LC0:
	.string	"Framebuffer address: 0x%.8x\n"
	.text
	.globl	_Z9InitDebugv
	.type	_Z9InitDebugv, @function
_Z9InitDebugv:
.LFB8:
	.loc 2 21 0
	.cfi_startproc
	pushl	%ebp
.LCFI9:
	.cfi_def_cfa_offset 8
	.cfi_offset 5, -8
	movl	%esp, %ebp
.LCFI10:
	.cfi_def_cfa_register 5
	subl	$40, %esp
	.loc 2 22 0
	call	_ZL15Get_Framebufferv
	movl	%eax, 4(%esp)
	movl	$.LC0, (%esp)
	call	_Z7kprintfPKcz
	.loc 2 23 0
	movl	$1, 16(%esp)
	movl	$753664, 12(%esp)
	movl	$1, 8(%esp)
	movl	$1, 4(%esp)
	movl	$rootAddressSpace, (%esp)
	call	_ZN18SPageDirectoryInfo3MapEi8MAP_TYPEPvj
	movl	%eax, _ZL13s_framebuffer
	.loc 2 24 0
	call	_ZL15Get_Framebufferv
	movl	%eax, 4(%esp)
	movl	$.LC0, (%esp)
	call	_Z7kprintfPKcz
	.loc 2 25 0
	leave
.LCFI11:
	.cfi_restore 5
	.cfi_def_cfa 4, 4
	ret
	.cfi_endproc
.LFE8:
	.size	_Z9InitDebugv, .-_Z9InitDebugv
	.globl	_Z4testc
	.type	_Z4testc, @function
_Z4testc:
.LFB9:
	.loc 2 28 0
	.cfi_startproc
	pushl	%ebp
.LCFI12:
	.cfi_def_cfa_offset 8
	.cfi_offset 5, -8
	movl	%esp, %ebp
.LCFI13:
	.cfi_def_cfa_register 5
	subl	$24, %esp
	movl	8(%ebp), %eax
	movb	%al, -20(%ebp)
.LBB3:
	.loc 2 29 0
	call	_ZL15Get_Framebufferv
	addl	$3998, %eax
	movl	%eax, -4(%ebp)
	.loc 2 30 0
	movl	-4(%ebp), %eax
	movzbl	-20(%ebp), %edx
	movb	%dl, (%eax)
	.loc 2 31 0
	movl	-4(%ebp), %eax
	addl	$1, %eax
	movb	$7, (%eax)
.LBE3:
	.loc 2 32 0
	leave
.LCFI14:
	.cfi_restore 5
	.cfi_def_cfa 4, 4
	ret
	.cfi_endproc
.LFE9:
	.size	_Z4testc, .-_Z4testc
	.section	.text._ZN14CathodeRayTubeC2Ev,"axG",@progbits,_ZN14CathodeRayTubeC5Ev,comdat
	.align 2
	.weak	_ZN14CathodeRayTubeC2Ev
	.type	_ZN14CathodeRayTubeC2Ev, @function
_ZN14CathodeRayTubeC2Ev:
.LFB11:
	.loc 2 40 0
	.cfi_startproc
	pushl	%ebp
.LCFI15:
	.cfi_def_cfa_offset 8
	.cfi_offset 5, -8
	movl	%esp, %ebp
.LCFI16:
	.cfi_def_cfa_register 5
.LBB4:
	.loc 2 42 0
	movl	8(%ebp), %eax
	movb	$0, (%eax)
.LBE4:
	.loc 2 43 0
	popl	%ebp
.LCFI17:
	.cfi_restore 5
	.cfi_def_cfa 4, 4
	ret
	.cfi_endproc
.LFE11:
	.size	_ZN14CathodeRayTubeC2Ev, .-_ZN14CathodeRayTubeC2Ev
	.weak	_ZN14CathodeRayTubeC1Ev
	.set	_ZN14CathodeRayTubeC1Ev,_ZN14CathodeRayTubeC2Ev
	.section	.text._ZN14CathodeRayTubeD2Ev,"axG",@progbits,_ZN14CathodeRayTubeD5Ev,comdat
	.align 2
	.weak	_ZN14CathodeRayTubeD2Ev
	.type	_ZN14CathodeRayTubeD2Ev, @function
_ZN14CathodeRayTubeD2Ev:
.LFB14:
	.loc 2 44 0
	.cfi_startproc
	pushl	%ebp
.LCFI18:
	.cfi_def_cfa_offset 8
	.cfi_offset 5, -8
	movl	%esp, %ebp
.LCFI19:
	.cfi_def_cfa_register 5
	.loc 2 46 0
	popl	%ebp
.LCFI20:
	.cfi_restore 5
	.cfi_def_cfa 4, 4
	ret
	.cfi_endproc
.LFE14:
	.size	_ZN14CathodeRayTubeD2Ev, .-_ZN14CathodeRayTubeD2Ev
	.weak	_ZN14CathodeRayTubeD1Ev
	.set	_ZN14CathodeRayTubeD1Ev,_ZN14CathodeRayTubeD2Ev
	.section	.text._ZN14CathodeRayTube5WidthEv,"axG",@progbits,_ZN14CathodeRayTube5WidthEv,comdat
	.align 2
	.weak	_ZN14CathodeRayTube5WidthEv
	.type	_ZN14CathodeRayTube5WidthEv, @function
_ZN14CathodeRayTube5WidthEv:
.LFB16:
	.loc 2 49 0
	.cfi_startproc
	pushl	%ebp
.LCFI21:
	.cfi_def_cfa_offset 8
	.cfi_offset 5, -8
	movl	%esp, %ebp
.LCFI22:
	.cfi_def_cfa_register 5
	.loc 2 51 0
	movl	$80, %eax
	.loc 2 52 0
	popl	%ebp
.LCFI23:
	.cfi_restore 5
	.cfi_def_cfa 4, 4
	ret
	.cfi_endproc
.LFE16:
	.size	_ZN14CathodeRayTube5WidthEv, .-_ZN14CathodeRayTube5WidthEv
	.section	.text._ZN14CathodeRayTube6HeightEv,"axG",@progbits,_ZN14CathodeRayTube6HeightEv,comdat
	.align 2
	.weak	_ZN14CathodeRayTube6HeightEv
	.type	_ZN14CathodeRayTube6HeightEv, @function
_ZN14CathodeRayTube6HeightEv:
.LFB17:
	.loc 2 53 0
	.cfi_startproc
	pushl	%ebp
.LCFI24:
	.cfi_def_cfa_offset 8
	.cfi_offset 5, -8
	movl	%esp, %ebp
.LCFI25:
	.cfi_def_cfa_register 5
	.loc 2 55 0
	movl	$25, %eax
	.loc 2 56 0
	popl	%ebp
.LCFI26:
	.cfi_restore 5
	.cfi_def_cfa 4, 4
	ret
	.cfi_endproc
.LFE17:
	.size	_ZN14CathodeRayTube6HeightEv, .-_ZN14CathodeRayTube6HeightEv
	.section	.text._ZN14CathodeRayTube11FrameBufferEv,"axG",@progbits,_ZN14CathodeRayTube11FrameBufferEv,comdat
	.align 2
	.weak	_ZN14CathodeRayTube11FrameBufferEv
	.type	_ZN14CathodeRayTube11FrameBufferEv, @function
_ZN14CathodeRayTube11FrameBufferEv:
.LFB18:
	.loc 2 59 0
	.cfi_startproc
	pushl	%ebp
.LCFI27:
	.cfi_def_cfa_offset 8
	.cfi_offset 5, -8
	movl	%esp, %ebp
.LCFI28:
	.cfi_def_cfa_register 5
	.loc 2 61 0
	call	_ZL15Get_Framebufferv
	.loc 2 62 0
	popl	%ebp
.LCFI29:
	.cfi_restore 5
	.cfi_def_cfa 4, 4
	ret
	.cfi_endproc
.LFE18:
	.size	_ZN14CathodeRayTube11FrameBufferEv, .-_ZN14CathodeRayTube11FrameBufferEv
	.section	.text._ZN14CathodeRayTube15GetCursorOffsetEv,"axG",@progbits,_ZN14CathodeRayTube15GetCursorOffsetEv,comdat
	.align 2
	.weak	_ZN14CathodeRayTube15GetCursorOffsetEv
	.type	_ZN14CathodeRayTube15GetCursorOffsetEv, @function
_ZN14CathodeRayTube15GetCursorOffsetEv:
.LFB19:
	.loc 2 65 0
	.cfi_startproc
	pushl	%ebp
.LCFI30:
	.cfi_def_cfa_offset 8
	.cfi_offset 5, -8
	movl	%esp, %ebp
.LCFI31:
	.cfi_def_cfa_register 5
	subl	$24, %esp
.LBB5:
	.loc 2 69 0
	movl	8(%ebp), %eax
	movzbl	(%eax), %eax
	testb	%al, %al
	je	.L19
	.loc 2 70 0
	movl	8(%ebp), %eax
	movl	4(%eax), %eax
	jmp	.L20
.L19:
	.loc 2 71 0
	movl	$14, 4(%esp)
	movl	$980, (%esp)
	call	_ZL4outbth
	.loc 2 72 0
	movl	$981, (%esp)
	call	_ZL3inbt
	movb	%al, -1(%ebp)
	.loc 2 73 0
	movl	$15, 4(%esp)
	movl	$980, (%esp)
	call	_ZL4outbth
	.loc 2 74 0
	movl	$981, (%esp)
	call	_ZL3inbt
	movb	%al, -2(%ebp)
	.loc 2 75 0
	movzbl	-1(%ebp), %eax
	movl	%eax, %edx
	sall	$8, %edx
	movzbl	-2(%ebp), %eax
	orl	%eax, %edx
	movl	8(%ebp), %eax
	movl	%edx, 4(%eax)
	.loc 2 76 0
	movl	8(%ebp), %eax
	movb	$1, (%eax)
	.loc 2 77 0
	movl	8(%ebp), %eax
	movl	4(%eax), %eax
.L20:
.LBE5:
	.loc 2 78 0
	leave
.LCFI32:
	.cfi_restore 5
	.cfi_def_cfa 4, 4
	ret
	.cfi_endproc
.LFE19:
	.size	_ZN14CathodeRayTube15GetCursorOffsetEv, .-_ZN14CathodeRayTube15GetCursorOffsetEv
	.section	.text._ZN14CathodeRayTube15SetCursorOffsetEi,"axG",@progbits,_ZN14CathodeRayTube15SetCursorOffsetEi,comdat
	.align 2
	.weak	_ZN14CathodeRayTube15SetCursorOffsetEi
	.type	_ZN14CathodeRayTube15SetCursorOffsetEi, @function
_ZN14CathodeRayTube15SetCursorOffsetEi:
.LFB20:
	.loc 2 81 0
	.cfi_startproc
	pushl	%ebp
.LCFI33:
	.cfi_def_cfa_offset 8
	.cfi_offset 5, -8
	movl	%esp, %ebp
.LCFI34:
	.cfi_def_cfa_register 5
	subl	$8, %esp
	.loc 2 83 0
	movl	8(%ebp), %eax
	movl	12(%ebp), %edx
	movl	%edx, 4(%eax)
	.loc 2 84 0
	movl	8(%ebp), %eax
	movb	$1, (%eax)
	.loc 2 85 0
	movl	$14, 4(%esp)
	movl	$980, (%esp)
	call	_ZL4outbth
	.loc 2 86 0
	movl	12(%ebp), %eax
	andl	$65280, %eax
	sarl	$8, %eax
	movzbl	%al, %eax
	movl	%eax, 4(%esp)
	movl	$981, (%esp)
	call	_ZL4outbth
	.loc 2 87 0
	movl	$15, 4(%esp)
	movl	$980, (%esp)
	call	_ZL4outbth
	.loc 2 88 0
	movl	12(%ebp), %eax
	movzbl	%al, %eax
	movl	%eax, 4(%esp)
	movl	$981, (%esp)
	call	_ZL4outbth
	.loc 2 89 0
	leave
.LCFI35:
	.cfi_restore 5
	.cfi_def_cfa 4, 4
	ret
	.cfi_endproc
.LFE20:
	.size	_ZN14CathodeRayTube15SetCursorOffsetEi, .-_ZN14CathodeRayTube15SetCursorOffsetEi
	.section	.text._ZN14CathodeRayTube5ClearEv,"axG",@progbits,_ZN14CathodeRayTube5ClearEv,comdat
	.align 2
	.weak	_ZN14CathodeRayTube5ClearEv
	.type	_ZN14CathodeRayTube5ClearEv, @function
_ZN14CathodeRayTube5ClearEv:
.LFB23:
	.loc 2 105 0
	.cfi_startproc
	pushl	%ebp
.LCFI36:
	.cfi_def_cfa_offset 8
	.cfi_offset 5, -8
	movl	%esp, %ebp
.LCFI37:
	.cfi_def_cfa_register 5
	subl	$40, %esp
.LBB6:
	.loc 2 110 0
	movl	8(%ebp), %eax
	movl	%eax, (%esp)
	call	_ZN14CathodeRayTube11FrameBufferEv
	movl	%eax, -16(%ebp)
	.loc 2 111 0
	movl	$0, -12(%ebp)
	jmp	.L23
.L24:
	.loc 2 112 0 discriminator 2
	movl	-12(%ebp), %eax
	leal	(%eax,%eax), %edx
	movl	-16(%ebp), %eax
	addl	%edx, %eax
	movw	$1824, (%eax)
	.loc 2 111 0 discriminator 2
	addl	$1, -12(%ebp)
.L23:
	.loc 2 111 0 is_stmt 0 discriminator 1
	cmpl	$1999, -12(%ebp)
	setle	%al
	testb	%al, %al
	jne	.L24
.LBE6:
	.loc 2 113 0 is_stmt 1
	leave
.LCFI38:
	.cfi_restore 5
	.cfi_def_cfa 4, 4
	ret
	.cfi_endproc
.LFE23:
	.size	_ZN14CathodeRayTube5ClearEv, .-_ZN14CathodeRayTube5ClearEv
	.section	.text._ZN13ScreenPrinter8PrintOutEPKci,"axG",@progbits,_ZN13ScreenPrinter8PrintOutEPKci,comdat
	.align 2
	.weak	_ZN13ScreenPrinter8PrintOutEPKci
	.type	_ZN13ScreenPrinter8PrintOutEPKci, @function
_ZN13ScreenPrinter8PrintOutEPKci:
.LFB24:
	.loc 2 119 0
	.cfi_startproc
	pushl	%ebp
.LCFI39:
	.cfi_def_cfa_offset 8
	.cfi_offset 5, -8
	movl	%esp, %ebp
.LCFI40:
	.cfi_def_cfa_register 5
	subl	$40, %esp
.LBB7:
.LBB8:
	.loc 2 121 0
	movl	$0, -12(%ebp)
	jmp	.L26
.L27:
	.loc 2 123 0 discriminator 2
	movl	-12(%ebp), %edx
	movl	12(%ebp), %eax
	addl	%edx, %eax
	movzbl	(%eax), %eax
	movsbl	%al, %eax
	movl	%eax, 4(%esp)
	movl	8(%ebp), %eax
	movl	%eax, (%esp)
	call	_ZN13ScreenPrinter10HandleCharEc
	.loc 2 125 0 discriminator 2
	movl	-12(%ebp), %edx
	movl	12(%ebp), %eax
	addl	%edx, %eax
	movzbl	(%eax), %eax
	movzbl	%al, %eax
	movl	%eax, 4(%esp)
	movl	$233, (%esp)
	call	_ZL4outbth
	.loc 2 121 0 discriminator 2
	addl	$1, -12(%ebp)
.L26:
	.loc 2 121 0 is_stmt 0 discriminator 1
	movl	-12(%ebp), %eax
	cmpl	16(%ebp), %eax
	setl	%al
	testb	%al, %al
	jne	.L27
.LBE8:
.LBE7:
	.loc 2 127 0 is_stmt 1
	leave
.LCFI41:
	.cfi_restore 5
	.cfi_def_cfa 4, 4
	ret
	.cfi_endproc
.LFE24:
	.size	_ZN13ScreenPrinter8PrintOutEPKci, .-_ZN13ScreenPrinter8PrintOutEPKci
	.section	.text._ZN13ScreenPrinter10HandleCharEc,"axG",@progbits,_ZN13ScreenPrinter10HandleCharEc,comdat
	.align 2
	.weak	_ZN13ScreenPrinter10HandleCharEc
	.type	_ZN13ScreenPrinter10HandleCharEc, @function
_ZN13ScreenPrinter10HandleCharEc:
.LFB25:
	.loc 2 129 0
	.cfi_startproc
	pushl	%ebp
.LCFI42:
	.cfi_def_cfa_offset 8
	.cfi_offset 5, -8
	movl	%esp, %ebp
.LCFI43:
	.cfi_def_cfa_register 5
	subl	$88, %esp
	movl	12(%ebp), %eax
	movb	%al, -60(%ebp)
.LBB9:
.LBB10:
	.loc 2 131 0
	movsbl	-60(%ebp), %eax
	cmpl	$10, %eax
	je	.L31
	cmpl	$10, %eax
	jg	.L34
	cmpl	$9, %eax
	je	.L30
	jmp	.L29
.L34:
	cmpl	$12, %eax
	je	.L32
	cmpl	$13, %eax
	je	.L33
	jmp	.L29
.L30:
.LBB11:
.LBB12:
	.loc 2 134 0
	movl	$0, -12(%ebp)
	jmp	.L35
.L36:
	.loc 2 135 0 discriminator 2
	movl	$7, 8(%esp)
	movl	$32, 4(%esp)
	movl	8(%ebp), %eax
	movl	%eax, (%esp)
	call	_ZN13ScreenPrinter9PrintCharEci
	.loc 2 134 0 discriminator 2
	addl	$1, -12(%ebp)
.L35:
	.loc 2 134 0 is_stmt 0 discriminator 1
	cmpl	$3, -12(%ebp)
	setle	%al
	testb	%al, %al
	jne	.L36
.LBE12:
	.loc 2 136 0 is_stmt 1
	jmp	.L28
.L33:
.LBB13:
	.loc 2 139 0
	leal	-32(%ebp), %eax
	movl	%eax, (%esp)
	call	_ZN14CathodeRayTubeC1Ev
	.loc 2 140 0
	leal	-32(%ebp), %eax
	movl	%eax, (%esp)
	call	_ZN14CathodeRayTube15GetCursorOffsetEv
	movl	%eax, -16(%ebp)
	.loc 2 141 0
	leal	-32(%ebp), %eax
	movl	%eax, (%esp)
	call	_ZN14CathodeRayTube5WidthEv
	movl	%eax, -64(%ebp)
	movl	-16(%ebp), %eax
	movl	%eax, %edx
	sarl	$31, %edx
	idivl	-64(%ebp)
	movl	%edx, %ecx
	movl	%ecx, %eax
	subl	%eax, -16(%ebp)
	.loc 2 142 0
	movl	-16(%ebp), %eax
	movl	%eax, 8(%esp)
	movl	$0, 4(%esp)
	movl	8(%ebp), %eax
	movl	%eax, (%esp)
	call	_ZN13ScreenPrinter9PrintCharEci
	leal	-32(%ebp), %eax
	movl	%eax, (%esp)
	call	_ZN14CathodeRayTubeD1Ev
.LBE13:
	.loc 2 144 0
	jmp	.L28
.L32:
.LBB14:
	.loc 2 147 0
	leal	-40(%ebp), %eax
	movl	%eax, (%esp)
	call	_ZN14CathodeRayTubeC1Ev
	.loc 2 148 0
	leal	-40(%ebp), %eax
	movl	%eax, (%esp)
	call	_ZN14CathodeRayTube15GetCursorOffsetEv
	movl	%eax, -20(%ebp)
	.loc 2 149 0
	leal	-40(%ebp), %eax
	movl	%eax, (%esp)
	call	_ZN14CathodeRayTube5WidthEv
	addl	%eax, -20(%ebp)
	.loc 2 150 0
	movl	-20(%ebp), %eax
	movl	%eax, 8(%esp)
	movl	$0, 4(%esp)
	movl	8(%ebp), %eax
	movl	%eax, (%esp)
	call	_ZN13ScreenPrinter9PrintCharEci
	leal	-40(%ebp), %eax
	movl	%eax, (%esp)
	call	_ZN14CathodeRayTubeD1Ev
.LBE14:
	.loc 2 152 0
	jmp	.L28
.L31:
.LBB15:
	.loc 2 155 0
	leal	-48(%ebp), %eax
	movl	%eax, (%esp)
	call	_ZN14CathodeRayTubeC1Ev
	.loc 2 156 0
	leal	-48(%ebp), %eax
	movl	%eax, (%esp)
	call	_ZN14CathodeRayTube15GetCursorOffsetEv
	movl	%eax, -24(%ebp)
	.loc 2 157 0
	leal	-48(%ebp), %eax
	movl	%eax, (%esp)
	call	_ZN14CathodeRayTube5WidthEv
	addl	%eax, -24(%ebp)
	.loc 2 158 0
	leal	-48(%ebp), %eax
	movl	%eax, (%esp)
	call	_ZN14CathodeRayTube5WidthEv
	movl	%eax, -64(%ebp)
	movl	-24(%ebp), %eax
	movl	%eax, %edx
	sarl	$31, %edx
	idivl	-64(%ebp)
	movl	%edx, %ecx
	movl	%ecx, %eax
	subl	%eax, -24(%ebp)
	.loc 2 159 0
	movl	-24(%ebp), %eax
	movl	%eax, 8(%esp)
	movl	$0, 4(%esp)
	movl	8(%ebp), %eax
	movl	%eax, (%esp)
	call	_ZN13ScreenPrinter9PrintCharEci
	leal	-48(%ebp), %eax
	movl	%eax, (%esp)
	call	_ZN14CathodeRayTubeD1Ev
.LBE15:
	.loc 2 161 0
	jmp	.L28
.L29:
	.loc 2 163 0
	movsbl	-60(%ebp), %eax
	movl	$7, 8(%esp)
	movl	%eax, 4(%esp)
	movl	8(%ebp), %eax
	movl	%eax, (%esp)
	call	_ZN13ScreenPrinter9PrintCharEci
	.loc 2 164 0
	nop
.L28:
.LBE11:
.LBE10:
.LBE9:
	.loc 2 166 0
	leave
.LCFI44:
	.cfi_restore 5
	.cfi_def_cfa 4, 4
	ret
	.cfi_endproc
.LFE25:
	.size	_ZN13ScreenPrinter10HandleCharEc, .-_ZN13ScreenPrinter10HandleCharEc
	.section	.text._ZN13ScreenPrinter9PrintCharEci,"axG",@progbits,_ZN13ScreenPrinter9PrintCharEci,comdat
	.align 2
	.weak	_ZN13ScreenPrinter9PrintCharEci
	.type	_ZN13ScreenPrinter9PrintCharEci, @function
_ZN13ScreenPrinter9PrintCharEci:
.LFB26:
	.loc 2 167 0
	.cfi_startproc
	pushl	%ebp
.LCFI45:
	.cfi_def_cfa_offset 8
	.cfi_offset 5, -8
	movl	%esp, %ebp
.LCFI46:
	.cfi_def_cfa_register 5
	pushl	%ebx
	subl	$68, %esp
	.cfi_offset 3, -12
	movl	12(%ebp), %eax
	movb	%al, -44(%ebp)
.LBB16:
	.loc 2 169 0
	leal	-32(%ebp), %eax
	movl	%eax, (%esp)
	call	_ZN14CathodeRayTubeC1Ev
	.loc 2 173 0
	leal	-32(%ebp), %eax
	movl	%eax, (%esp)
	call	_ZN14CathodeRayTube11FrameBufferEv
	movl	%eax, -20(%ebp)
	.loc 2 174 0
	cmpb	$0, -44(%ebp)
	je	.L39
	.loc 2 176 0
	leal	-32(%ebp), %eax
	movl	%eax, (%esp)
	call	_ZN14CathodeRayTube15GetCursorOffsetEv
	movl	%eax, -12(%ebp)
	.loc 2 177 0
	movl	-12(%ebp), %eax
	addl	%eax, %eax
	movl	%eax, %edx
	movl	-20(%ebp), %eax
	addl	%eax, %edx
	movzbl	-44(%ebp), %eax
	movb	%al, (%edx)
	.loc 2 178 0
	movl	-12(%ebp), %eax
	addl	%eax, %eax
	leal	1(%eax), %edx
	movl	-20(%ebp), %eax
	addl	%eax, %edx
	movl	16(%ebp), %eax
	movb	%al, (%edx)
	.loc 2 179 0
	addl	$1, -12(%ebp)
	.loc 2 185 0
	jmp	.L41
.L39:
	.loc 2 183 0
	movl	16(%ebp), %eax
	movl	%eax, -12(%ebp)
	.loc 2 185 0
	jmp	.L41
.L46:
.LBB17:
	.loc 2 189 0
	leal	-32(%ebp), %eax
	movl	%eax, (%esp)
	call	_ZN14CathodeRayTube5WidthEv
	subl	%eax, -12(%ebp)
	.loc 2 190 0
	leal	-32(%ebp), %eax
	movl	%eax, (%esp)
	call	_ZN14CathodeRayTube5WidthEv
	movl	%eax, %ebx
	leal	-32(%ebp), %eax
	movl	%eax, (%esp)
	call	_ZN14CathodeRayTube6HeightEv
	subl	$1, %eax
	addl	%eax, %eax
	imull	%ebx, %eax
	movl	%eax, -24(%ebp)
	.loc 2 191 0
	movl	$0, -16(%ebp)
	jmp	.L42
.L43:
	.loc 2 192 0 discriminator 2
	movl	-16(%ebp), %edx
	movl	-20(%ebp), %eax
	leal	(%edx,%eax), %ebx
	leal	-32(%ebp), %eax
	movl	%eax, (%esp)
	call	_ZN14CathodeRayTube5WidthEv
	leal	(%eax,%eax), %edx
	movl	-16(%ebp), %eax
	addl	%edx, %eax
	movl	%eax, %edx
	movl	-20(%ebp), %eax
	addl	%edx, %eax
	movzbl	(%eax), %eax
	movb	%al, (%ebx)
	.loc 2 191 0 discriminator 2
	addl	$1, -16(%ebp)
.L42:
	.loc 2 191 0 is_stmt 0 discriminator 1
	movl	-16(%ebp), %eax
	cmpl	-24(%ebp), %eax
	setl	%al
	testb	%al, %al
	jne	.L43
	.loc 2 193 0 is_stmt 1
	leal	-32(%ebp), %eax
	movl	%eax, (%esp)
	call	_ZN14CathodeRayTube5WidthEv
	addl	%eax, %eax
	addl	%eax, -24(%ebp)
	.loc 2 194 0
	jmp	.L44
.L45:
	.loc 2 196 0
	movl	-16(%ebp), %edx
	movl	-20(%ebp), %eax
	addl	%edx, %eax
	movb	$32, (%eax)
	addl	$1, -16(%ebp)
	.loc 2 197 0
	movl	-16(%ebp), %edx
	movl	-20(%ebp), %eax
	addl	%edx, %eax
	movb	$7, (%eax)
	addl	$1, -16(%ebp)
.L44:
	.loc 2 194 0 discriminator 1
	movl	-16(%ebp), %eax
	cmpl	-24(%ebp), %eax
	setl	%al
	testb	%al, %al
	jne	.L45
.L41:
.LBE17:
	.loc 2 185 0 discriminator 1
	leal	-32(%ebp), %eax
	movl	%eax, (%esp)
	call	_ZN14CathodeRayTube5WidthEv
	movl	%eax, %ebx
	leal	-32(%ebp), %eax
	movl	%eax, (%esp)
	call	_ZN14CathodeRayTube6HeightEv
	imull	%ebx, %eax
	cmpl	-12(%ebp), %eax
	setle	%al
	testb	%al, %al
	jne	.L46
	.loc 2 200 0
	movl	-12(%ebp), %eax
	movl	%eax, 4(%esp)
	leal	-32(%ebp), %eax
	movl	%eax, (%esp)
	call	_ZN14CathodeRayTube15SetCursorOffsetEi
	leal	-32(%ebp), %eax
	movl	%eax, (%esp)
	call	_ZN14CathodeRayTubeD1Ev
.LBE16:
	.loc 2 201 0
	addl	$68, %esp
	popl	%ebx
	.cfi_restore 3
	popl	%ebp
.LCFI47:
	.cfi_restore 5
	.cfi_def_cfa 4, 4
	ret
	.cfi_endproc
.LFE26:
	.size	_ZN13ScreenPrinter9PrintCharEci, .-_ZN13ScreenPrinter9PrintCharEci
	.text
	.globl	_Z4kclsv
	.type	_Z4kclsv, @function
_Z4kclsv:
.LFB27:
	.loc 2 205 0
	.cfi_startproc
	pushl	%ebp
.LCFI48:
	.cfi_def_cfa_offset 8
	.cfi_offset 5, -8
	movl	%esp, %ebp
.LCFI49:
	.cfi_def_cfa_register 5
	subl	$40, %esp
.LBB18:
	.loc 2 206 0
	leal	-16(%ebp), %eax
	movl	%eax, (%esp)
	call	_ZN14CathodeRayTubeC1Ev
	.loc 2 208 0
	leal	-16(%ebp), %eax
	movl	%eax, (%esp)
	call	_ZN14CathodeRayTube5ClearEv
	leal	-16(%ebp), %eax
	movl	%eax, (%esp)
	call	_ZN14CathodeRayTubeD1Ev
.LBE18:
	.loc 2 209 0
	leave
.LCFI50:
	.cfi_restore 5
	.cfi_def_cfa 4, 4
	ret
	.cfi_endproc
.LFE27:
	.size	_Z4kclsv, .-_Z4kclsv
	.section	.text._ZN13ScreenPrinterC2Ev,"axG",@progbits,_ZN13ScreenPrinterC5Ev,comdat
	.align 2
	.weak	_ZN13ScreenPrinterC2Ev
	.type	_ZN13ScreenPrinterC2Ev, @function
_ZN13ScreenPrinterC2Ev:
.LFB30:
	.loc 2 116 0
	.cfi_startproc
	pushl	%ebp
.LCFI51:
	.cfi_def_cfa_offset 8
	.cfi_offset 5, -8
	movl	%esp, %ebp
.LCFI52:
	.cfi_def_cfa_register 5
	subl	$24, %esp
.LBB19:
	.loc 2 116 0
	movl	8(%ebp), %eax
	movl	%eax, (%esp)
	call	_ZN12CStringPrintC2Ev
	movl	8(%ebp), %eax
	movl	$_ZTV13ScreenPrinter+8, (%eax)
.LBE19:
	leave
.LCFI53:
	.cfi_restore 5
	.cfi_def_cfa 4, 4
	ret
	.cfi_endproc
.LFE30:
	.size	_ZN13ScreenPrinterC2Ev, .-_ZN13ScreenPrinterC2Ev
	.weak	_ZN13ScreenPrinterC1Ev
	.set	_ZN13ScreenPrinterC1Ev,_ZN13ScreenPrinterC2Ev
	.text
	.globl	_Z7kprintfPKcz
	.type	_Z7kprintfPKcz, @function
_Z7kprintfPKcz:
.LFB28:
	.loc 2 212 0
	.cfi_startproc
	pushl	%ebp
.LCFI54:
	.cfi_def_cfa_offset 8
	.cfi_offset 5, -8
	movl	%esp, %ebp
.LCFI55:
	.cfi_def_cfa_register 5
	subl	$40, %esp
.LBB20:
	.loc 2 213 0
	leal	-12(%ebp), %eax
	movl	%eax, (%esp)
	call	_ZN13ScreenPrinterC1Ev
	.loc 2 216 0
	leal	12(%ebp), %eax
	movl	%eax, -16(%ebp)
	.loc 2 217 0
	leal	-16(%ebp), %eax
	movl	%eax, 8(%esp)
	movl	8(%ebp), %eax
	movl	%eax, 4(%esp)
	leal	-12(%ebp), %eax
	movl	%eax, (%esp)
	call	_ZN12CStringPrint9PrintListEPKcRPc
	.loc 2 218 0
	leal	-12(%ebp), %eax
	movl	%eax, (%esp)
	call	_ZN13ScreenPrinterD1Ev
.LBE20:
	.loc 2 219 0
	leave
.LCFI56:
	.cfi_restore 5
	.cfi_def_cfa 4, 4
	ret
	.cfi_endproc
.LFE28:
	.size	_Z7kprintfPKcz, .-_Z7kprintfPKcz
	.weak	_ZTV13ScreenPrinter
	.section	.rodata._ZTV13ScreenPrinter,"aG",@progbits,_ZTV13ScreenPrinter,comdat
	.align 8
	.type	_ZTV13ScreenPrinter, @object
	.size	_ZTV13ScreenPrinter, 20
_ZTV13ScreenPrinter:
	.long	0
	.long	0
	.long	_ZN13ScreenPrinterD1Ev
	.long	_ZN13ScreenPrinterD0Ev
	.long	_ZN13ScreenPrinter8PrintOutEPKci
	.section	.text._ZN13ScreenPrinterD2Ev,"axG",@progbits,_ZN13ScreenPrinterD5Ev,comdat
	.align 2
	.weak	_ZN13ScreenPrinterD2Ev
	.type	_ZN13ScreenPrinterD2Ev, @function
_ZN13ScreenPrinterD2Ev:
.LFB33:
	.loc 2 116 0
	.cfi_startproc
	pushl	%ebp
.LCFI57:
	.cfi_def_cfa_offset 8
	.cfi_offset 5, -8
	movl	%esp, %ebp
.LCFI58:
	.cfi_def_cfa_register 5
	subl	$24, %esp
.LBB21:
	.loc 2 116 0
	movl	8(%ebp), %eax
	movl	$_ZTV13ScreenPrinter+8, (%eax)
	movl	8(%ebp), %eax
	movl	%eax, (%esp)
	call	_ZN12CStringPrintD2Ev
.LBE21:
	movl	$0, %eax
	andl	$1, %eax
	testl	%eax, %eax
	je	.L50
	.loc 2 116 0 is_stmt 0 discriminator 2
	movl	8(%ebp), %eax
	movl	%eax, (%esp)
	call	_ZdlPv
.L50:
	.loc 2 116 0
	leave
.LCFI59:
	.cfi_restore 5
	.cfi_def_cfa 4, 4
	ret
	.cfi_endproc
.LFE33:
	.size	_ZN13ScreenPrinterD2Ev, .-_ZN13ScreenPrinterD2Ev
	.weak	_ZN13ScreenPrinterD1Ev
	.set	_ZN13ScreenPrinterD1Ev,_ZN13ScreenPrinterD2Ev
	.section	.text._ZN13ScreenPrinterD0Ev,"axG",@progbits,_ZN13ScreenPrinterD0Ev,comdat
	.align 2
	.weak	_ZN13ScreenPrinterD0Ev
	.type	_ZN13ScreenPrinterD0Ev, @function
_ZN13ScreenPrinterD0Ev:
.LFB35:
	.loc 2 116 0 is_stmt 1
	.cfi_startproc
	pushl	%ebp
.LCFI60:
	.cfi_def_cfa_offset 8
	.cfi_offset 5, -8
	movl	%esp, %ebp
.LCFI61:
	.cfi_def_cfa_register 5
	subl	$24, %esp
	.loc 2 116 0
	movl	8(%ebp), %eax
	movl	%eax, (%esp)
	call	_ZN13ScreenPrinterD1Ev
	movl	8(%ebp), %eax
	movl	%eax, (%esp)
	call	_ZdlPv
	leave
.LCFI62:
	.cfi_restore 5
	.cfi_def_cfa 4, 4
	ret
	.cfi_endproc
.LFE35:
	.size	_ZN13ScreenPrinterD0Ev, .-_ZN13ScreenPrinterD0Ev
	.section	.rodata
	.align 8
	.type	_ZL15physicalAddress, @object
	.size	_ZL15physicalAddress, 8
_ZL15physicalAddress:
	.long	753664
	.long	0
	.text
.Letext0:
	.file 3 "/usr/lib/gcc/x86_64-unknown-linux-gnu/4.7.1/include/stdarg.h"
	.file 4 "runtime.h"
	.file 5 "mem_physical.h"
	.file 6 "mem_logical.h"
	.section	.note.GNU-stack,"",@progbits
