	.file	"main.cpp"
	.text
.Ltext0:
	.type	_ZL10FixAddressPv, @function
_ZL10FixAddressPv:
.LFB7:
	.file 1 "main.cpp"
	.loc 1 12 0
	.cfi_startproc
	pushl	%ebp
.LCFI0:
	.cfi_def_cfa_offset 8
	.cfi_offset 5, -8
	movl	%esp, %ebp
.LCFI1:
	.cfi_def_cfa_register 5
	.loc 1 13 0
	movl	$virt, %edx
	movl	$phys, %eax
	subl	%eax, %edx
	movl	8(%ebp), %eax
	addl	%edx, %eax
	.loc 1 14 0
	popl	%ebp
.LCFI2:
	.cfi_restore 5
	.cfi_def_cfa 4, 4
	ret
	.cfi_endproc
.LFE7:
	.size	_ZL10FixAddressPv, .-_ZL10FixAddressPv
	.section	.rodata
	.align 4
.LC0:
	.string	"Munro Systems\nCosmOS 1.0\nCopyright (C) 2008-2013 Colin Munro\n\n"
	.align 4
.LC1:
	.string	"Multiboot: magic number incorrect\n"
	.align 4
.LC2:
	.string	"Multiboot: %iKb low mem, %iKb high mem:\n"
.LC3:
	.string	"\t0x%.8x: %i bytes\n"
.LC4:
	.string	"Reserving...\n"
.LC5:
	.string	"Stack at 0x%.8x\n"
.LC6:
	.string	"\nStarting!\n"
	.text
	.globl	k_main
	.type	k_main, @function
k_main:
.LFB8:
	.loc 1 17 0
	.cfi_startproc
	pushl	%ebp
.LCFI3:
	.cfi_def_cfa_offset 8
	.cfi_offset 5, -8
	movl	%esp, %ebp
.LCFI4:
	.cfi_def_cfa_register 5
	subl	$40, %esp
.LBB2:
	.loc 1 20 0
	movl	$65, (%esp)
	call	_Z4testc
	.loc 1 21 0
	movl	$.LC0, (%esp)
	call	_Z7kprintfPKcz
	.loc 1 22 0
	cmpl	$732803074, 12(%ebp)
	je	.L4
	.loc 1 24 0
	movl	$.LC1, (%esp)
	call	_Z7kprintfPKcz
	.loc 1 25 0
	movl	$-1, %eax
	jmp	.L5
.L4:
	.loc 1 29 0
	call	_ZN15CPhysicalMemory4InitEv
	.loc 1 30 0
	movl	$rootAddressSpace, (%esp)
	call	_ZN18SPageDirectoryInfo10InitKernelEv
	.loc 1 33 0
	movl	8(%ebp), %eax
	movl	%eax, (%esp)
	call	_ZL10FixAddressPv
	movl	%eax, 8(%ebp)
	.loc 1 35 0
	movl	8(%ebp), %eax
	movl	8(%eax), %edx
	movl	8(%ebp), %eax
	movl	4(%eax), %eax
	movl	%edx, 8(%esp)
	movl	%eax, 4(%esp)
	movl	$.LC2, (%esp)
	call	_Z7kprintfPKcz
	.loc 1 37 0
	movl	8(%ebp), %eax
	movl	48(%eax), %eax
	movl	%eax, (%esp)
	call	_ZL10FixAddressPv
	movl	%eax, -12(%ebp)
	.loc 1 36 0
	jmp	.L6
.L8:
	.loc 1 41 0
	movl	-12(%ebp), %eax
	movl	20(%eax), %eax
	cmpl	$1, %eax
	jne	.L7
	.loc 1 44 0
	movl	-12(%ebp), %eax
	movl	12(%eax), %edx
	movl	-12(%ebp), %eax
	movl	4(%eax), %eax
	movl	%edx, 8(%esp)
	movl	%eax, 4(%esp)
	movl	$.LC3, (%esp)
	call	_Z7kprintfPKcz
	.loc 1 45 0
	movl	-12(%ebp), %eax
	movl	12(%eax), %edx
	movl	-12(%ebp), %eax
	movl	4(%eax), %eax
	movl	%edx, 4(%esp)
	movl	%eax, (%esp)
	call	_ZN15CPhysicalMemory8AddChunkEPvm
.L7:
	.loc 1 39 0
	movl	-12(%ebp), %eax
	movl	(%eax), %eax
	addl	$4, %eax
	.loc 1 36 0
	addl	%eax, -12(%ebp)
.L6:
	.loc 1 38 0 discriminator 1
	movl	8(%ebp), %eax
	movl	48(%eax), %eax
	movl	%eax, (%esp)
	call	_ZL10FixAddressPv
	.loc 1 36 0 discriminator 1
	movl	8(%ebp), %edx
	movl	44(%edx), %edx
	addl	%edx, %eax
	cmpl	-12(%ebp), %eax
	seta	%al
	testb	%al, %al
	jne	.L8
	.loc 1 48 0
	movl	$.LC4, (%esp)
	call	_Z7kprintfPKcz
	.loc 1 49 0
	movl	$kern_end, %edx
	movl	$kern_start, %eax
	movl	%edx, %ecx
	subl	%eax, %ecx
	movl	%ecx, %eax
	movl	%eax, 4(%esp)
	movl	$kern_start, (%esp)
	call	_ZN15CPhysicalMemory11AddReservedEPvm
	.loc 1 50 0
	movl	$stack, 4(%esp)
	movl	$.LC5, (%esp)
	call	_Z7kprintfPKcz
	.loc 1 52 0
	call	_Z9InitDebugv
	.loc 1 55 0
	movl	$.LC6, (%esp)
	call	_Z7kprintfPKcz
	.loc 1 56 0
	movl	$90, (%esp)
	call	_Z4testc
	.loc 1 57 0
	movl	$0, %eax
.L5:
.LBE2:
	.loc 1 58 0
	leave
.LCFI5:
	.cfi_restore 5
	.cfi_def_cfa 4, 4
	ret
	.cfi_endproc
.LFE8:
	.size	k_main, .-k_main
.Letext0:
	.file 2 "multiboot.h"
	.file 3 "runtime.h"
	.file 4 "mem_physical.h"
	.file 5 "mem_logical.h"
	.section	.note.GNU-stack,"",@progbits
