	.file	"mem_logical.cpp"
	.text
.Ltext0:
	.globl	rootAddressSpace
	.bss
	.align 32
	.type	rootAddressSpace, @object
	.size	rootAddressSpace, 4108
rootAddressSpace:
	.zero	4108
	.globl	currentAddressSpace
	.align 4
	.type	currentAddressSpace, @object
	.size	currentAddressSpace, 4
currentAddressSpace:
	.zero	4
	.globl	availableMappingPages
	.align 4
	.type	availableMappingPages, @object
	.size	availableMappingPages, 4
availableMappingPages:
	.zero	4
	.text
	.type	_ZL13InvalidateTLBPv, @function
_ZL13InvalidateTLBPv:
.LFB0:
	.file 1 "mem_logical.cpp"
	.loc 1 18 0
	.cfi_startproc
	pushl	%ebp
.LCFI0:
	.cfi_def_cfa_offset 8
	.cfi_offset 5, -8
	movl	%esp, %ebp
.LCFI1:
	.cfi_def_cfa_register 5
	.loc 1 23 0
	movl	8(%ebp), %eax
#APP
# 23 "mem_logical.cpp" 1
	invlpg (%eax)
# 0 "" 2
	.loc 1 24 0
#NO_APP
	popl	%ebp
.LCFI2:
	.cfi_restore 5
	.cfi_def_cfa 4, 4
	ret
	.cfi_endproc
.LFE0:
	.size	_ZL13InvalidateTLBPv, .-_ZL13InvalidateTLBPv
	.section	.rodata
	.align 4
.LC0:
	.string	"Kernel logical 0x%.8x, physical 0x%.8x\n"
.LC1:
	.string	"4MB page found at %i\n"
	.text
	.align 2
	.globl	_ZN18SPageDirectoryInfo10InitKernelEv
	.type	_ZN18SPageDirectoryInfo10InitKernelEv, @function
_ZN18SPageDirectoryInfo10InitKernelEv:
.LFB1:
	.loc 1 27 0
	.cfi_startproc
	pushl	%ebp
.LCFI3:
	.cfi_def_cfa_offset 8
	.cfi_offset 5, -8
	movl	%esp, %ebp
.LCFI4:
	.cfi_def_cfa_register 5
	pushl	%ebx
	subl	$36, %esp
	.cfi_offset 3, -12
.LBB2:
	.loc 1 28 0
	movl	$virt, %edx
	movl	$phys, %eax
	movl	%edx, 8(%esp)
	movl	%eax, 4(%esp)
	movl	$.LC0, (%esp)
	call	_Z7kprintfPKcz
	.loc 1 30 0
	movl	8(%ebp), %eax
	movl	%eax, currentAddressSpace
	.loc 1 31 0
	movl	8(%ebp), %eax
	movl	$BootPageDirectory, 4096(%eax)
	.loc 1 32 0
	movl	$BootPageDirectory, %eax
	movl	$phys, %ecx
	movl	$virt, %edx
	movl	%ecx, %ebx
	subl	%edx, %ebx
	movl	%ebx, %edx
	addl	%edx, %eax
	movl	%eax, %edx
	movl	8(%ebp), %eax
	movl	%edx, 4100(%eax)
	.loc 1 34 0
	movl	8(%ebp), %eax
	movl	$1, 4104(%eax)
	.loc 1 37 0
	movl	8(%ebp), %eax
	movl	4096(%eax), %eax
	movzbl	(%eax), %edx
	andl	$-2, %edx
	movb	%dl, (%eax)
	.loc 1 38 0
	movl	$0, (%esp)
	call	_ZL13InvalidateTLBPv
.LBB3:
	.loc 1 41 0
	movl	$0, -12(%ebp)
	jmp	.L3
.L6:
	.loc 1 43 0
	movl	8(%ebp), %eax
	movl	4096(%eax), %eax
	movl	-12(%ebp), %edx
	sall	$2, %edx
	addl	%edx, %eax
	movzbl	(%eax), %eax
	andl	$1, %eax
	testb	%al, %al
	je	.L4
	.loc 1 46 0
	movl	8(%ebp), %eax
	movl	4096(%eax), %eax
	movl	-12(%ebp), %edx
	sall	$2, %edx
	addl	%edx, %eax
	movzbl	(%eax), %eax
	andl	$-128, %eax
	testb	%al, %al
	je	.L5
	.loc 1 49 0
	movl	8(%ebp), %eax
	movl	-12(%ebp), %edx
	movl	$-1, (%eax,%edx,4)
	.loc 1 50 0
	movl	-12(%ebp), %eax
	movl	%eax, 4(%esp)
	movl	$.LC1, (%esp)
	call	_Z7kprintfPKcz
	jmp	.L5
.L4:
	.loc 1 60 0
	movl	8(%ebp), %eax
	movl	-12(%ebp), %edx
	movl	$0, (%eax,%edx,4)
.L5:
	.loc 1 41 0
	addl	$1, -12(%ebp)
.L3:
	.loc 1 41 0 is_stmt 0 discriminator 1
	cmpl	$1023, -12(%ebp)
	setle	%al
	testb	%al, %al
	jne	.L6
.LBE3:
	.loc 1 65 0 is_stmt 1
	movl	$PageMapBootstrap, %eax
	movl	$phys, %ecx
	movl	$virt, %edx
	movl	%ecx, %ebx
	subl	%edx, %ebx
	movl	%ebx, %edx
	addl	%edx, %eax
	movl	%eax, -20(%ebp)
	.loc 1 66 0
	movl	$1023, availableMappingPages
.LBB4:
	.loc 1 67 0
	movl	$0, -16(%ebp)
	jmp	.L7
.L8:
	.loc 1 68 0 discriminator 2
	movl	-16(%ebp), %eax
	movl	$0, PageMapBootstrap(,%eax,4)
	.loc 1 67 0 discriminator 2
	addl	$1, -16(%ebp)
.L7:
	.loc 1 67 0 is_stmt 0 discriminator 1
	cmpl	$1023, -16(%ebp)
	setle	%al
	testb	%al, %al
	jne	.L8
.LBE4:
	.loc 1 69 0 is_stmt 1
	movl	-20(%ebp), %eax
	shrl	$12, %eax
	andl	$1048575, %eax
	movl	%eax, %edx
	sall	$12, %edx
	movl	PageMapBootstrap+4092, %eax
	andl	$4095, %eax
	orl	%edx, %eax
	movl	%eax, PageMapBootstrap+4092
	.loc 1 70 0
	movzbl	PageMapBootstrap+4092, %eax
	orl	$2, %eax
	movb	%al, PageMapBootstrap+4092
	.loc 1 71 0
	movzbl	PageMapBootstrap+4092, %eax
	orl	$1, %eax
	movb	%al, PageMapBootstrap+4092
	.loc 1 73 0
	movl	8(%ebp), %eax
	movl	4096(%eax), %eax
	addl	$4092, %eax
	movl	-20(%ebp), %edx
	shrl	$12, %edx
	andl	$1048575, %edx
	movl	%edx, %ecx
	sall	$12, %ecx
	movl	(%eax), %edx
	andl	$4095, %edx
	orl	%ecx, %edx
	movl	%edx, (%eax)
	.loc 1 74 0
	movl	8(%ebp), %eax
	movl	4096(%eax), %eax
	addl	$4092, %eax
	movzbl	(%eax), %edx
	orl	$64, %edx
	movb	%dl, (%eax)
	.loc 1 75 0
	movl	8(%ebp), %eax
	movl	4096(%eax), %eax
	addl	$4092, %eax
	movzbl	(%eax), %edx
	orl	$2, %edx
	movb	%dl, (%eax)
	.loc 1 76 0
	movl	8(%ebp), %eax
	movl	4096(%eax), %eax
	addl	$4092, %eax
	movzbl	(%eax), %edx
	orl	$1, %edx
	movb	%dl, (%eax)
	.loc 1 77 0
	movl	8(%ebp), %eax
	movl	$-4096, 4092(%eax)
	.loc 1 78 0
	movl	8(%ebp), %eax
	movl	4092(%eax), %eax
	movl	%eax, (%esp)
	call	_ZL13InvalidateTLBPv
.LBE2:
	.loc 1 79 0
	addl	$36, %esp
	popl	%ebx
	.cfi_restore 3
	popl	%ebp
.LCFI5:
	.cfi_restore 5
	.cfi_def_cfa 4, 4
	ret
	.cfi_endproc
.LFE1:
	.size	_ZN18SPageDirectoryInfo10InitKernelEv, .-_ZN18SPageDirectoryInfo10InitKernelEv
	.align 2
	.globl	_ZN18SPageDirectoryInfo4InitEv
	.type	_ZN18SPageDirectoryInfo4InitEv, @function
_ZN18SPageDirectoryInfo4InitEv:
.LFB2:
	.loc 1 82 0
	.cfi_startproc
	pushl	%ebp
.LCFI6:
	.cfi_def_cfa_offset 8
	.cfi_offset 5, -8
	movl	%esp, %ebp
.LCFI7:
	.cfi_def_cfa_register 5
	subl	$56, %esp
.LBB5:
	.loc 1 84 0
	movl	_ZN15CPhysicalMemory7MaximumE, %edx
	movl	_ZN15CPhysicalMemory7MinimumE, %eax
	movl	%edx, 8(%esp)
	movl	%eax, 4(%esp)
	movl	$1, (%esp)
	call	_ZN15CPhysicalMemory23AllocateContiguousPagesEmPvS0_
	movl	8(%ebp), %edx
	movl	%eax, 4100(%edx)
	.loc 1 85 0
	movl	8(%ebp), %eax
	movl	4100(%eax), %eax
	movl	$1, 16(%esp)
	movl	%eax, 12(%esp)
	movl	$1, 8(%esp)
	movl	$1, 4(%esp)
	movl	8(%ebp), %eax
	movl	%eax, (%esp)
	call	_ZN18SPageDirectoryInfo3MapEi8MAP_TYPEPvj
	movl	8(%ebp), %edx
	movl	%eax, 4096(%edx)
.LBB6:
	.loc 1 88 0
	movl	$0, -12(%ebp)
	jmp	.L10
.L11:
	.loc 1 90 0 discriminator 2
	movl	8(%ebp), %eax
	movl	-12(%ebp), %edx
	movl	$0, (%eax,%edx,4)
	.loc 1 91 0 discriminator 2
	movl	8(%ebp), %eax
	movl	4096(%eax), %eax
	movl	-12(%ebp), %edx
	sall	$2, %edx
	addl	%edx, %eax
	movl	$0, (%eax)
	.loc 1 88 0 discriminator 2
	addl	$1, -12(%ebp)
.L10:
	.loc 1 88 0 is_stmt 0 discriminator 1
	cmpl	$1023, -12(%ebp)
	setle	%al
	testb	%al, %al
	jne	.L11
.LBE6:
	.loc 1 95 0 is_stmt 1
	movl	8(%ebp), %eax
	movl	$0, 4104(%eax)
.LBE5:
	.loc 1 96 0
	leave
.LCFI8:
	.cfi_restore 5
	.cfi_def_cfa 4, 4
	ret
	.cfi_endproc
.LFE2:
	.size	_ZN18SPageDirectoryInfo4InitEv, .-_ZN18SPageDirectoryInfo4InitEv
	.align 2
	.globl	_ZN18SPageDirectoryInfo7ReleaseEv
	.type	_ZN18SPageDirectoryInfo7ReleaseEv, @function
_ZN18SPageDirectoryInfo7ReleaseEv:
.LFB3:
	.loc 1 99 0
	.cfi_startproc
	pushl	%ebp
.LCFI9:
	.cfi_def_cfa_offset 8
	.cfi_offset 5, -8
	movl	%esp, %ebp
.LCFI10:
	.cfi_def_cfa_register 5
	subl	$40, %esp
.LBB7:
.LBB8:
	.loc 1 101 0
	movl	$0, -12(%ebp)
	jmp	.L13
.L21:
.LBB9:
	.loc 1 103 0
	movl	8(%ebp), %eax
	movl	4096(%eax), %eax
	movl	-12(%ebp), %edx
	sall	$2, %edx
	addl	%edx, %eax
	movzbl	(%eax), %eax
	andl	$1, %eax
	testb	%al, %al
	je	.L22
.L14:
	.loc 1 106 0
	movl	8(%ebp), %eax
	movl	4096(%eax), %eax
	movl	-12(%ebp), %edx
	sall	$2, %edx
	addl	%edx, %eax
	movzbl	(%eax), %eax
	andl	$-128, %eax
	testb	%al, %al
	jne	.L23
.L16:
.LBB10:
	.loc 1 112 0
	movl	$0, -16(%ebp)
	jmp	.L17
.L20:
	.loc 1 114 0
	movl	8(%ebp), %eax
	movl	-12(%ebp), %edx
	movl	(%eax,%edx,4), %eax
	movl	-16(%ebp), %edx
	movzbl	(%eax,%edx,4), %eax
	andl	$1, %eax
	testb	%al, %al
	je	.L24
.L18:
	.loc 1 116 0
	movl	8(%ebp), %eax
	movl	-12(%ebp), %edx
	movl	(%eax,%edx,4), %eax
	movl	-16(%ebp), %edx
	movl	(%eax,%edx,4), %eax
	shrl	$12, %eax
	sall	$12, %eax
	movl	$1, 4(%esp)
	movl	%eax, (%esp)
	call	_ZN15CPhysicalMemory12ReleasePagesEPvm
	jmp	.L19
.L24:
	.loc 1 115 0
	nop
.L19:
	.loc 1 112 0
	addl	$1, -16(%ebp)
.L17:
	.loc 1 112 0 is_stmt 0 discriminator 1
	cmpl	$1023, -16(%ebp)
	setle	%al
	testb	%al, %al
	jne	.L20
	jmp	.L15
.L22:
.LBE10:
	.loc 1 104 0 is_stmt 1
	nop
	jmp	.L15
.L23:
	.loc 1 109 0
	nop
.L15:
.LBE9:
	.loc 1 101 0
	addl	$1, -12(%ebp)
.L13:
	.loc 1 101 0 is_stmt 0 discriminator 1
	movl	-12(%ebp), %eax
	movl	$phys, %edx
	shrl	$22, %edx
	cmpl	%edx, %eax
	setb	%al
	testb	%al, %al
	jne	.L21
.LBE8:
	.loc 1 121 0 is_stmt 1
	movl	8(%ebp), %eax
	movl	4096(%eax), %eax
	movl	%eax, 4(%esp)
	movl	8(%ebp), %eax
	movl	%eax, (%esp)
	call	_ZN18SPageDirectoryInfo5UnmapEPv
	.loc 1 122 0
	movl	8(%ebp), %eax
	movl	4100(%eax), %eax
	movl	$1, 4(%esp)
	movl	%eax, (%esp)
	call	_ZN15CPhysicalMemory12ReleasePagesEPvm
.LBE7:
	.loc 1 123 0
	leave
.LCFI11:
	.cfi_restore 5
	.cfi_def_cfa 4, 4
	ret
	.cfi_endproc
.LFE3:
	.size	_ZN18SPageDirectoryInfo7ReleaseEv, .-_ZN18SPageDirectoryInfo7ReleaseEv
	.align 2
	.globl	_ZN18SPageDirectoryInfo6SelectEv
	.type	_ZN18SPageDirectoryInfo6SelectEv, @function
_ZN18SPageDirectoryInfo6SelectEv:
.LFB4:
	.loc 1 126 0
	.cfi_startproc
	pushl	%ebp
.LCFI12:
	.cfi_def_cfa_offset 8
	.cfi_offset 5, -8
	movl	%esp, %ebp
.LCFI13:
	.cfi_def_cfa_register 5
	subl	$24, %esp
	.loc 1 127 0
	cmpl	$rootAddressSpace, 8(%ebp)
	je	.L26
	.loc 1 129 0
	movl	8(%ebp), %eax
	movl	4104(%eax), %edx
	movl	rootAddressSpace+4104, %eax
	cmpl	%eax, %edx
	je	.L26
	.loc 1 131 0
	movl	8(%ebp), %eax
	movl	%eax, (%esp)
	call	_ZN18SPageDirectoryInfo10CopyKernelEv
.L26:
	.loc 1 134 0
	movl	8(%ebp), %eax
	movl	4100(%eax), %eax
#APP
# 134 "mem_logical.cpp" 1
	mov %eax, %cr3
# 0 "" 2
	.loc 1 135 0
#NO_APP
	movl	8(%ebp), %eax
	movl	%eax, currentAddressSpace
	.loc 1 136 0
	leave
.LCFI14:
	.cfi_restore 5
	.cfi_def_cfa 4, 4
	ret
	.cfi_endproc
.LFE4:
	.size	_ZN18SPageDirectoryInfo6SelectEv, .-_ZN18SPageDirectoryInfo6SelectEv
	.section	.rodata
	.align 4
.LC2:
	.string	"SPageDirectoryInfo::Map(%.4x, %.2x, 0x%.8x, %i)\n"
.LC3:
	.string	"down"
.LC4:
	.string	"up"
	.align 4
.LC5:
	.string	"Searching %s between 0x%.8x and 0x%.8x (kernel base 0x%.8x)\n"
	.align 4
.LC6:
	.string	"Generated new mapping at 0x%.8x\n"
	.text
	.align 2
	.globl	_ZN18SPageDirectoryInfo3MapEi8MAP_TYPEPvj
	.type	_ZN18SPageDirectoryInfo3MapEi8MAP_TYPEPvj, @function
_ZN18SPageDirectoryInfo3MapEi8MAP_TYPEPvj:
.LFB5:
	.loc 1 139 0
	.cfi_startproc
	pushl	%ebp
.LCFI15:
	.cfi_def_cfa_offset 8
	.cfi_offset 5, -8
	movl	%esp, %ebp
.LCFI16:
	.cfi_def_cfa_register 5
	subl	$88, %esp
.LBB11:
	.loc 1 140 0
	movl	24(%ebp), %ecx
	movl	20(%ebp), %edx
	movl	16(%ebp), %eax
	movl	%ecx, 16(%esp)
	movl	%edx, 12(%esp)
	movl	%eax, 8(%esp)
	movl	12(%ebp), %eax
	movl	%eax, 4(%esp)
	movl	$.LC2, (%esp)
	call	_Z7kprintfPKcz
	.loc 1 148 0
	cmpl	$1, 16(%ebp)
	jne	.L28
	.loc 1 148 0 is_stmt 0 discriminator 1
	cmpl	$rootAddressSpace, 8(%ebp)
	je	.L28
	.loc 1 150 0 is_stmt 1
	movl	24(%ebp), %eax
	movl	%eax, 16(%esp)
	movl	20(%ebp), %eax
	movl	%eax, 12(%esp)
	movl	16(%ebp), %eax
	movl	%eax, 8(%esp)
	movl	12(%ebp), %eax
	movl	%eax, 4(%esp)
	movl	$rootAddressSpace, (%esp)
	call	_ZN18SPageDirectoryInfo3MapEi8MAP_TYPEPvj
	movl	%eax, -24(%ebp)
	.loc 1 151 0
	movl	8(%ebp), %eax
	movl	%eax, (%esp)
	call	_ZN18SPageDirectoryInfo10CopyKernelEv
	.loc 1 152 0
	movl	-24(%ebp), %eax
	jmp	.L29
.L28:
	.loc 1 156 0
	movb	$0, -17(%ebp)
	.loc 1 157 0
	movl	16(%ebp), %eax
	testl	%eax, %eax
	je	.L31
	cmpl	$1, %eax
	je	.L32
	jmp	.L61
.L31:
	.loc 1 160 0
	movl	12(%ebp), %eax
	andl	$4, %eax
	testl	%eax, %eax
	je	.L33
	.loc 1 161 0
	movl	$0, %eax
	jmp	.L29
.L33:
	.loc 1 162 0
	movl	$4096, -12(%ebp)
	.loc 1 163 0
	movl	$virt, %eax
	subl	$4096, %eax
	movl	%eax, -16(%ebp)
	.loc 1 164 0
	jmp	.L34
.L32:
	.loc 1 166 0
	movl	12(%ebp), %eax
	andl	$4, %eax
	testl	%eax, %eax
	je	.L35
	.loc 1 168 0
	cmpl	$1, 24(%ebp)
	je	.L36
	.loc 1 169 0
	movl	$0, %eax
	jmp	.L29
.L36:
	.loc 1 170 0
	movb	$1, -17(%ebp)
.L35:
	.loc 1 173 0
	movl	$virt, -12(%ebp)
	.loc 1 174 0
	movl	$-4096, -16(%ebp)
	.loc 1 175 0
	jmp	.L34
.L61:
	.loc 1 177 0
	movl	$0, %eax
	jmp	.L29
.L34:
	.loc 1 184 0
	movl	-16(%ebp), %ecx
	movl	-12(%ebp), %edx
	cmpb	$0, -17(%ebp)
	je	.L37
	.loc 1 184 0 is_stmt 0 discriminator 1
	movl	$.LC3, %eax
	jmp	.L38
.L37:
	.loc 1 184 0 discriminator 2
	movl	$.LC4, %eax
.L38:
	.loc 1 184 0 discriminator 3
	movl	$virt, 16(%esp)
	movl	%ecx, 12(%esp)
	movl	%edx, 8(%esp)
	movl	%eax, 4(%esp)
	movl	$.LC5, (%esp)
	call	_Z7kprintfPKcz
	.loc 1 185 0 is_stmt 1 discriminator 3
	movl	$0, -24(%ebp)
	.loc 1 186 0 discriminator 3
	cmpb	$0, -17(%ebp)
	je	.L39
	.loc 1 186 0 is_stmt 0 discriminator 1
	movl	-16(%ebp), %eax
	jmp	.L40
.L39:
	.loc 1 186 0 discriminator 2
	movl	-12(%ebp), %eax
.L40:
	.loc 1 186 0 discriminator 3
	movl	%eax, -28(%ebp)
	.loc 1 187 0 is_stmt 1 discriminator 3
	movl	$0, -32(%ebp)
	.loc 1 188 0 discriminator 3
	jmp	.L41
.L48:
.LBB12:
	.loc 1 190 0
	movl	-12(%ebp), %eax
	cmpl	-28(%ebp), %eax
	ja	.L42
	.loc 1 190 0 is_stmt 0 discriminator 1
	movl	-16(%ebp), %eax
	cmpl	-28(%ebp), %eax
	jae	.L43
.L42:
	.loc 1 191 0 is_stmt 1
	movl	$0, %eax
	jmp	.L29
.L43:
	.loc 1 193 0
	movl	-28(%ebp), %eax
	movl	%eax, 4(%esp)
	movl	8(%ebp), %eax
	movl	%eax, (%esp)
	call	_ZN18SPageDirectoryInfo7AddressEPv
	movl	%eax, -44(%ebp)
	.loc 1 194 0
	movl	-28(%ebp), %eax
	movl	%eax, 4(%esp)
	movl	8(%ebp), %eax
	movl	%eax, (%esp)
	call	_ZN18SPageDirectoryInfo7AddressEPv
	movl	_ZN15CPhysicalMemory7InvalidE, %edx
	cmpl	%edx, %eax
	sete	%al
	testb	%al, %al
	je	.L44
	.loc 1 196 0
	cmpl	$0, -32(%ebp)
	jne	.L45
	.loc 1 197 0
	movl	-28(%ebp), %eax
	movl	%eax, -24(%ebp)
.L45:
	.loc 1 198 0
	addl	$1, -32(%ebp)
	jmp	.L46
.L44:
	.loc 1 202 0
	movl	$0, -32(%ebp)
.L46:
	.loc 1 205 0
	cmpb	$0, -17(%ebp)
	je	.L47
	.loc 1 206 0
	movl	-28(%ebp), %eax
	subl	$4096, %eax
	movl	%eax, -28(%ebp)
	jmp	.L41
.L47:
	.loc 1 208 0
	movl	-28(%ebp), %eax
	addl	$4096, %eax
	movl	%eax, -28(%ebp)
.L41:
.LBE12:
	.loc 1 188 0 discriminator 1
	movl	-32(%ebp), %eax
	cmpl	24(%ebp), %eax
	setb	%al
	testb	%al, %al
	jne	.L48
	.loc 1 210 0
	cmpl	$0, -24(%ebp)
	jne	.L49
	.loc 1 211 0
	movl	$0, %eax
	jmp	.L29
.L49:
.LBB13:
	.loc 1 213 0
	movl	12(%ebp), %eax
	andl	$4, %eax
	testl	%eax, %eax
	je	.L50
	.loc 1 213 0 is_stmt 0 discriminator 1
	movl	availableMappingPages, %eax
	cmpl	$1, %eax
	jne	.L50
.LBB14:
	.loc 1 218 0 is_stmt 1
	movl	$1023, -36(%ebp)
	jmp	.L51
.L54:
	.loc 1 220 0
	movl	8(%ebp), %eax
	movl	4096(%eax), %eax
	movl	-36(%ebp), %edx
	sall	$2, %edx
	addl	%edx, %eax
	movzbl	(%eax), %eax
	andl	$1, %eax
	testb	%al, %al
	je	.L62
.L52:
	.loc 1 218 0
	subl	$1, -36(%ebp)
.L51:
	.loc 1 218 0 is_stmt 0 discriminator 1
	movl	-36(%ebp), %eax
	notl	%eax
	shrl	$31, %eax
	testb	%al, %al
	jne	.L54
	jmp	.L53
.L62:
	.loc 1 221 0 is_stmt 1
	nop
.L53:
	.loc 1 223 0
	cmpl	$0, -36(%ebp)
	jns	.L55
	.loc 1 224 0
	movl	$0, %eax
	jmp	.L29
.L55:
	.loc 1 227 0
	movl	_ZN15CPhysicalMemory7MaximumE, %edx
	movl	_ZN15CPhysicalMemory7MinimumE, %eax
	movl	%edx, 8(%esp)
	movl	%eax, 4(%esp)
	movl	$1, (%esp)
	call	_ZN15CPhysicalMemory23AllocateContiguousPagesEmPvS0_
	movl	%eax, -48(%ebp)
	.loc 1 228 0
	movl	-48(%ebp), %eax
	movl	%eax, 12(%esp)
	movl	-24(%ebp), %eax
	movl	%eax, 8(%esp)
	movl	$1, 4(%esp)
	movl	8(%ebp), %eax
	movl	%eax, (%esp)
	call	_ZN18SPageDirectoryInfo3MapEiPvS0_
	.loc 1 229 0
	movl	-24(%ebp), %eax
	movl	%eax, -52(%ebp)
.LBB15:
	.loc 1 232 0
	movl	$0, -40(%ebp)
	jmp	.L56
.L57:
	.loc 1 233 0 discriminator 2
	movl	-52(%ebp), %eax
	movl	-40(%ebp), %edx
	movl	$0, (%eax,%edx,4)
	.loc 1 232 0 discriminator 2
	addl	$1, -40(%ebp)
.L56:
	.loc 1 232 0 is_stmt 0 discriminator 1
	cmpl	$1023, -40(%ebp)
	setle	%al
	testb	%al, %al
	jne	.L57
.LBE15:
	.loc 1 236 0 is_stmt 1
	movl	8(%ebp), %eax
	movl	4096(%eax), %eax
	movl	-36(%ebp), %edx
	sall	$2, %edx
	addl	%edx, %eax
	movl	-48(%ebp), %edx
	shrl	$12, %edx
	andl	$1048575, %edx
	movl	%edx, %ecx
	sall	$12, %ecx
	movl	(%eax), %edx
	andl	$4095, %edx
	orl	%ecx, %edx
	movl	%edx, (%eax)
	.loc 1 237 0
	movl	8(%ebp), %eax
	movl	4096(%eax), %eax
	movl	-36(%ebp), %edx
	sall	$2, %edx
	addl	%edx, %eax
	movzbl	(%eax), %edx
	orl	$2, %edx
	movb	%dl, (%eax)
	.loc 1 238 0
	movl	8(%ebp), %eax
	movl	4096(%eax), %eax
	movl	-36(%ebp), %edx
	sall	$2, %edx
	addl	%edx, %eax
	movzbl	(%eax), %edx
	orl	$64, %edx
	movb	%dl, (%eax)
	.loc 1 239 0
	movl	8(%ebp), %eax
	movl	4096(%eax), %eax
	movl	-36(%ebp), %edx
	sall	$2, %edx
	addl	%edx, %eax
	movzbl	(%eax), %edx
	orl	$1, %edx
	movb	%dl, (%eax)
	.loc 1 240 0
	movl	8(%ebp), %eax
	movl	-36(%ebp), %edx
	movl	-52(%ebp), %ecx
	movl	%ecx, (%eax,%edx,4)
	.loc 1 243 0
	movl	availableMappingPages, %eax
	addl	$1023, %eax
	movl	%eax, availableMappingPages
	.loc 1 246 0
	movl	-36(%ebp), %eax
	sall	$22, %eax
	orl	$16773120, %eax
	movl	%eax, -24(%ebp)
.L50:
.LBE14:
.LBE13:
	.loc 1 250 0
	movl	$0, -32(%ebp)
	movl	-24(%ebp), %eax
	movl	%eax, -28(%ebp)
	jmp	.L58
.L59:
	.loc 1 253 0 discriminator 2
	movl	20(%ebp), %eax
	movl	%eax, 12(%esp)
	movl	-28(%ebp), %eax
	movl	%eax, 8(%esp)
	movl	12(%ebp), %eax
	movl	%eax, 4(%esp)
	movl	8(%ebp), %eax
	movl	%eax, (%esp)
	call	_ZN18SPageDirectoryInfo3MapEiPvS0_
	.loc 1 250 0 discriminator 2
	addl	$1, -32(%ebp)
	addl	$4096, -28(%ebp)
	addl	$4096, 20(%ebp)
.L58:
	.loc 1 250 0 is_stmt 0 discriminator 1
	movl	-32(%ebp), %eax
	cmpl	24(%ebp), %eax
	setb	%al
	testb	%al, %al
	jne	.L59
	.loc 1 256 0 is_stmt 1
	cmpl	$rootAddressSpace, 8(%ebp)
	jne	.L60
	.loc 1 258 0
	movl	8(%ebp), %eax
	movl	4104(%eax), %eax
	leal	1(%eax), %edx
	movl	8(%ebp), %eax
	movl	%edx, 4104(%eax)
	.loc 1 259 0
	movl	8(%ebp), %eax
	movl	4104(%eax), %eax
	testl	%eax, %eax
	jne	.L60
	.loc 1 260 0
	movl	8(%ebp), %eax
	movl	$1, 4104(%eax)
.L60:
	.loc 1 264 0
	movl	-24(%ebp), %eax
	movl	%eax, 4(%esp)
	movl	$.LC6, (%esp)
	call	_Z7kprintfPKcz
	.loc 1 265 0
	movl	-24(%ebp), %eax
.L29:
.LBE11:
	.loc 1 266 0
	leave
.LCFI17:
	.cfi_restore 5
	.cfi_def_cfa 4, 4
	ret
	.cfi_endproc
.LFE5:
	.size	_ZN18SPageDirectoryInfo3MapEi8MAP_TYPEPvj, .-_ZN18SPageDirectoryInfo3MapEi8MAP_TYPEPvj
	.section	.rodata
	.align 4
.LC7:
	.string	"SPageDirectoryInfo::Map(%.4x, 0x%.8x, 0x%.8x)\n"
.LC8:
	.string	"0x%.8x mapped\n"
	.text
	.align 2
	.globl	_ZN18SPageDirectoryInfo3MapEiPvS0_
	.type	_ZN18SPageDirectoryInfo3MapEiPvS0_, @function
_ZN18SPageDirectoryInfo3MapEiPvS0_:
.LFB6:
	.loc 1 269 0
	.cfi_startproc
	pushl	%ebp
.LCFI18:
	.cfi_def_cfa_offset 8
	.cfi_offset 5, -8
	movl	%esp, %ebp
.LCFI19:
	.cfi_def_cfa_register 5
	subl	$72, %esp
.LBB16:
	.loc 1 270 0
	movl	20(%ebp), %edx
	movl	16(%ebp), %eax
	movl	%edx, 12(%esp)
	movl	%eax, 8(%esp)
	movl	12(%ebp), %eax
	movl	%eax, 4(%esp)
	movl	$.LC7, (%esp)
	call	_Z7kprintfPKcz
	.loc 1 271 0
	movl	$48, (%esp)
	call	_Z4testc
	.loc 1 273 0
	movl	16(%ebp), %eax
	shrl	$22, %eax
	movl	%eax, -16(%ebp)
	.loc 1 274 0
	movl	16(%ebp), %eax
	shrl	$12, %eax
	andl	$1023, %eax
	movl	%eax, -20(%ebp)
	.loc 1 275 0
	movl	16(%ebp), %eax
	andl	$4095, %eax
	movl	%eax, -24(%ebp)
.LBB17:
	.loc 1 278 0
	movl	8(%ebp), %eax
	movl	4096(%eax), %eax
	movl	-16(%ebp), %edx
	sall	$2, %edx
	addl	%edx, %eax
	movzbl	(%eax), %eax
	andl	$1, %eax
	testb	%al, %al
	jne	.L64
.LBB18:
	.loc 1 280 0
	movl	$49, (%esp)
	call	_Z4testc
	.loc 1 281 0
	movl	_ZN15CPhysicalMemory7MaximumE, %edx
	movl	_ZN15CPhysicalMemory7MinimumE, %eax
	movl	%edx, 8(%esp)
	movl	%eax, 4(%esp)
	movl	$1, (%esp)
	call	_ZN15CPhysicalMemory23AllocateContiguousPagesEmPvS0_
	movl	%eax, -28(%ebp)
	.loc 1 282 0
	movl	$50, (%esp)
	call	_Z4testc
	.loc 1 283 0
	movl	$1, 16(%esp)
	movl	-28(%ebp), %eax
	movl	%eax, 12(%esp)
	movl	$1, 8(%esp)
	movl	$5, 4(%esp)
	movl	8(%ebp), %eax
	movl	%eax, (%esp)
	call	_ZN18SPageDirectoryInfo3MapEi8MAP_TYPEPvj
	movl	8(%ebp), %edx
	movl	-16(%ebp), %ecx
	movl	%eax, (%edx,%ecx,4)
	.loc 1 285 0
	movl	$51, (%esp)
	call	_Z4testc
.LBB19:
	.loc 1 287 0
	movl	$0, -12(%ebp)
	jmp	.L65
.L66:
	.loc 1 288 0 discriminator 2
	movl	8(%ebp), %eax
	movl	-16(%ebp), %edx
	movl	(%eax,%edx,4), %eax
	movl	-12(%ebp), %edx
	movl	$0, (%eax,%edx,4)
	.loc 1 287 0 discriminator 2
	addl	$1, -12(%ebp)
.L65:
	.loc 1 287 0 is_stmt 0 discriminator 1
	cmpl	$1023, -12(%ebp)
	setle	%al
	testb	%al, %al
	jne	.L66
.LBE19:
	.loc 1 291 0 is_stmt 1
	movl	$52, (%esp)
	call	_Z4testc
	.loc 1 294 0
	movl	$0, -36(%ebp)
	.loc 1 295 0
	movl	-28(%ebp), %eax
	shrl	$12, %eax
	andl	$1048575, %eax
	movl	%eax, %edx
	sall	$12, %edx
	movl	-36(%ebp), %eax
	andl	$4095, %eax
	orl	%edx, %eax
	movl	%eax, -36(%ebp)
	.loc 1 296 0
	movzbl	-36(%ebp), %eax
	orl	$1, %eax
	movb	%al, -36(%ebp)
	.loc 1 297 0
	movzbl	-36(%ebp), %eax
	orl	$2, %eax
	movb	%al, -36(%ebp)
	.loc 1 298 0
	movzbl	-36(%ebp), %eax
	andl	$-5, %eax
	movb	%al, -36(%ebp)
	.loc 1 299 0
	movzbl	-36(%ebp), %eax
	andl	$-9, %eax
	movb	%al, -36(%ebp)
	.loc 1 300 0
	movzbl	-36(%ebp), %eax
	andl	$-17, %eax
	movb	%al, -36(%ebp)
	.loc 1 301 0
	movzbl	-36(%ebp), %eax
	andl	$-33, %eax
	movb	%al, -36(%ebp)
	.loc 1 302 0
	movzbl	-36(%ebp), %eax
	orl	$64, %eax
	movb	%al, -36(%ebp)
	.loc 1 303 0
	movzbl	-36(%ebp), %eax
	andl	$127, %eax
	movb	%al, -36(%ebp)
	.loc 1 304 0
	movzbl	-35(%ebp), %eax
	andl	$-2, %eax
	movb	%al, -35(%ebp)
	.loc 1 305 0
	movl	8(%ebp), %eax
	movl	4096(%eax), %eax
	movl	-16(%ebp), %edx
	sall	$2, %edx
	addl	%eax, %edx
	movl	-36(%ebp), %eax
	movl	%eax, (%edx)
.L64:
.LBE18:
.LBE17:
	.loc 1 308 0
	movl	$53, (%esp)
	call	_Z4testc
	.loc 1 310 0
	movl	$0, -32(%ebp)
	.loc 1 311 0
	movzbl	-32(%ebp), %eax
	orl	$1, %eax
	movb	%al, -32(%ebp)
	.loc 1 312 0
	movl	12(%ebp), %eax
	andl	$1, %eax
	testl	%eax, %eax
	je	.L67
	.loc 1 313 0
	movzbl	-32(%ebp), %eax
	orl	$2, %eax
	movb	%al, -32(%ebp)
.L67:
	.loc 1 314 0
	movl	12(%ebp), %eax
	andl	$2, %eax
	testl	%eax, %eax
	je	.L68
	.loc 1 315 0
	movzbl	-32(%ebp), %eax
	orl	$4, %eax
	movb	%al, -32(%ebp)
.L68:
	.loc 1 316 0
	movl	20(%ebp), %eax
	shrl	$12, %eax
	andl	$1048575, %eax
	movl	%eax, %edx
	sall	$12, %edx
	movl	-32(%ebp), %eax
	andl	$4095, %eax
	orl	%edx, %eax
	movl	%eax, -32(%ebp)
	.loc 1 319 0
	movl	$54, (%esp)
	call	_Z4testc
	.loc 1 320 0
	movl	8(%ebp), %eax
	movl	-16(%ebp), %edx
	movl	(%eax,%edx,4), %eax
	movl	-20(%ebp), %edx
	movl	-32(%ebp), %ecx
	movl	%ecx, (%eax,%edx,4)
	.loc 1 321 0
	movl	$55, (%esp)
	call	_Z4testc
	.loc 1 322 0
	movl	16(%ebp), %eax
	movl	%eax, (%esp)
	call	_ZL13InvalidateTLBPv
	.loc 1 323 0
	movl	16(%ebp), %eax
	movl	%eax, 4(%esp)
	movl	$.LC8, (%esp)
	call	_Z7kprintfPKcz
.LBE16:
	.loc 1 324 0
	leave
.LCFI20:
	.cfi_restore 5
	.cfi_def_cfa 4, 4
	ret
	.cfi_endproc
.LFE6:
	.size	_ZN18SPageDirectoryInfo3MapEiPvS0_, .-_ZN18SPageDirectoryInfo3MapEiPvS0_
	.align 2
	.globl	_ZN18SPageDirectoryInfo5UnmapEPv
	.type	_ZN18SPageDirectoryInfo5UnmapEPv, @function
_ZN18SPageDirectoryInfo5UnmapEPv:
.LFB7:
	.loc 1 327 0
	.cfi_startproc
	pushl	%ebp
.LCFI21:
	.cfi_def_cfa_offset 8
	.cfi_offset 5, -8
	movl	%esp, %ebp
.LCFI22:
	.cfi_def_cfa_register 5
	subl	$24, %esp
	.loc 1 328 0
	movl	$0, 8(%esp)
	movl	12(%ebp), %eax
	movl	%eax, 4(%esp)
	movl	8(%ebp), %eax
	movl	%eax, (%esp)
	call	_ZN18SPageDirectoryInfo5UnmapEPvb
	.loc 1 329 0
	leave
.LCFI23:
	.cfi_restore 5
	.cfi_def_cfa 4, 4
	ret
	.cfi_endproc
.LFE7:
	.size	_ZN18SPageDirectoryInfo5UnmapEPv, .-_ZN18SPageDirectoryInfo5UnmapEPv
	.align 2
	.globl	_ZN18SPageDirectoryInfo5UnmapEPvb
	.type	_ZN18SPageDirectoryInfo5UnmapEPvb, @function
_ZN18SPageDirectoryInfo5UnmapEPvb:
.LFB8:
	.loc 1 332 0
	.cfi_startproc
	pushl	%ebp
.LCFI24:
	.cfi_def_cfa_offset 8
	.cfi_offset 5, -8
	movl	%esp, %ebp
.LCFI25:
	.cfi_def_cfa_register 5
	subl	$56, %esp
	movl	16(%ebp), %eax
	movb	%al, -28(%ebp)
.LBB20:
	.loc 1 334 0
	cmpl	$PageMapBootstrap, 12(%ebp)
	je	.L80
.L71:
	.loc 1 338 0
	movl	12(%ebp), %eax
	shrl	$22, %eax
	movl	%eax, -16(%ebp)
	.loc 1 339 0
	movl	12(%ebp), %eax
	shrl	$12, %eax
	andl	$1023, %eax
	movl	%eax, -20(%ebp)
	.loc 1 340 0
	movl	12(%ebp), %eax
	andl	$4095, %eax
	movl	%eax, -24(%ebp)
	.loc 1 343 0
	movl	8(%ebp), %eax
	movl	4096(%eax), %eax
	movl	-16(%ebp), %edx
	sall	$2, %edx
	addl	%edx, %eax
	movzbl	(%eax), %eax
	andl	$1, %eax
	testb	%al, %al
	je	.L81
.L73:
	.loc 1 345 0
	movl	8(%ebp), %eax
	movl	-16(%ebp), %edx
	movl	(%eax,%edx,4), %eax
	cmpl	$-1, %eax
	je	.L82
.L74:
	.loc 1 347 0
	movl	8(%ebp), %eax
	movl	-16(%ebp), %edx
	movl	(%eax,%edx,4), %eax
	movl	-20(%ebp), %edx
	movzbl	(%eax,%edx,4), %eax
	andl	$1, %eax
	testb	%al, %al
	je	.L83
.L75:
	.loc 1 351 0
	movl	8(%ebp), %eax
	movl	-16(%ebp), %edx
	movl	(%eax,%edx,4), %eax
	movl	-20(%ebp), %edx
	movzbl	(%eax,%edx,4), %ecx
	andl	$-2, %ecx
	movb	%cl, (%eax,%edx,4)
	.loc 1 352 0
	movl	12(%ebp), %eax
	movl	%eax, (%esp)
	call	_ZL13InvalidateTLBPv
	.loc 1 353 0
	cmpb	$0, -28(%ebp)
	je	.L76
	.loc 1 354 0
	movl	availableMappingPages, %eax
	addl	$1, %eax
	movl	%eax, availableMappingPages
.L76:
.LBB21:
	.loc 1 357 0
	movl	$0, -12(%ebp)
	jmp	.L77
.L79:
	.loc 1 359 0
	movl	8(%ebp), %eax
	movl	-16(%ebp), %edx
	movl	(%eax,%edx,4), %eax
	movl	-12(%ebp), %edx
	movzbl	(%eax,%edx,4), %eax
	andl	$1, %eax
	testb	%al, %al
	jne	.L84
.L78:
	.loc 1 357 0
	addl	$1, -12(%ebp)
.L77:
	.loc 1 357 0 is_stmt 0 discriminator 1
	cmpl	$1023, -12(%ebp)
	setle	%al
	testb	%al, %al
	jne	.L79
.LBE21:
	.loc 1 364 0 is_stmt 1
	movl	8(%ebp), %eax
	movl	4096(%eax), %eax
	movl	-16(%ebp), %edx
	sall	$2, %edx
	addl	%edx, %eax
	movzbl	(%eax), %edx
	andl	$-2, %edx
	movb	%dl, (%eax)
	.loc 1 365 0
	movl	8(%ebp), %eax
	movl	-16(%ebp), %edx
	movl	(%eax,%edx,4), %eax
	movl	$1, 8(%esp)
	movl	%eax, 4(%esp)
	movl	8(%ebp), %eax
	movl	%eax, (%esp)
	call	_ZN18SPageDirectoryInfo5UnmapEPvb
	.loc 1 366 0
	movl	8(%ebp), %eax
	movl	-16(%ebp), %edx
	movl	$0, (%eax,%edx,4)
	.loc 1 367 0
	movl	8(%ebp), %eax
	movl	4096(%eax), %eax
	movl	-16(%ebp), %edx
	sall	$2, %edx
	addl	%edx, %eax
	movl	(%eax), %eax
	shrl	$12, %eax
	sall	$12, %eax
	movl	$1, 4(%esp)
	movl	%eax, (%esp)
	call	_ZN15CPhysicalMemory12ReleasePagesEPvm
	.loc 1 368 0
	cmpb	$0, -28(%ebp)
	je	.L70
	.loc 1 369 0
	movl	availableMappingPages, %eax
	subl	$1023, %eax
	movl	%eax, availableMappingPages
	jmp	.L70
.L80:
	.loc 1 335 0
	nop
	jmp	.L70
.L81:
	.loc 1 344 0
	nop
	jmp	.L70
.L82:
	.loc 1 346 0
	nop
	jmp	.L70
.L83:
	.loc 1 348 0
	nop
	jmp	.L70
.L84:
.LBB22:
	.loc 1 360 0
	nop
.L70:
.LBE22:
.LBE20:
	.loc 1 370 0
	leave
.LCFI26:
	.cfi_restore 5
	.cfi_def_cfa 4, 4
	ret
	.cfi_endproc
.LFE8:
	.size	_ZN18SPageDirectoryInfo5UnmapEPvb, .-_ZN18SPageDirectoryInfo5UnmapEPvb
	.align 2
	.globl	_ZN18SPageDirectoryInfo7AddressEPv
	.type	_ZN18SPageDirectoryInfo7AddressEPv, @function
_ZN18SPageDirectoryInfo7AddressEPv:
.LFB9:
	.loc 1 373 0
	.cfi_startproc
	pushl	%ebp
.LCFI27:
	.cfi_def_cfa_offset 8
	.cfi_offset 5, -8
	movl	%esp, %ebp
.LCFI28:
	.cfi_def_cfa_register 5
	subl	$16, %esp
.LBB23:
	.loc 1 376 0
	movl	12(%ebp), %eax
	shrl	$22, %eax
	movl	%eax, -4(%ebp)
	.loc 1 377 0
	movl	8(%ebp), %eax
	movl	4096(%eax), %eax
	movl	-4(%ebp), %edx
	sall	$2, %edx
	addl	%edx, %eax
	movzbl	(%eax), %eax
	andl	$1, %eax
	testb	%al, %al
	jne	.L86
	.loc 1 378 0
	movl	_ZN15CPhysicalMemory7InvalidE, %eax
	jmp	.L87
.L86:
	.loc 1 382 0
	movl	8(%ebp), %eax
	movl	4096(%eax), %eax
	movl	-4(%ebp), %edx
	sall	$2, %edx
	addl	%edx, %eax
	movzbl	(%eax), %eax
	andl	$-128, %eax
	testb	%al, %al
	je	.L88
	.loc 1 383 0
	movl	8(%ebp), %eax
	movl	4096(%eax), %eax
	movl	-4(%ebp), %edx
	sall	$2, %edx
	addl	%edx, %eax
	movl	(%eax), %eax
	shrl	$12, %eax
	sall	$12, %eax
	movl	%eax, %edx
	andl	$-4194304, %edx
	movl	12(%ebp), %eax
	andl	$4194303, %eax
	orl	%edx, %eax
	jmp	.L87
.L88:
	.loc 1 387 0
	movl	8(%ebp), %eax
	movl	-4(%ebp), %edx
	movl	(%eax,%edx,4), %eax
	movl	%eax, -8(%ebp)
	.loc 1 388 0
	movl	12(%ebp), %eax
	andl	$4190208, %eax
	shrl	$12, %eax
	movl	%eax, -12(%ebp)
	.loc 1 389 0
	movl	-8(%ebp), %eax
	movl	-12(%ebp), %edx
	movzbl	(%eax,%edx,4), %eax
	andl	$1, %eax
	testb	%al, %al
	jne	.L89
	.loc 1 390 0
	movl	_ZN15CPhysicalMemory7InvalidE, %eax
	jmp	.L87
.L89:
	.loc 1 392 0
	movl	-8(%ebp), %eax
	movl	-12(%ebp), %edx
	movl	(%eax,%edx,4), %eax
	shrl	$12, %eax
	sall	$12, %eax
	movl	12(%ebp), %edx
	andl	$4095, %edx
	orl	%edx, %eax
.L87:
.LBE23:
	.loc 1 393 0
	leave
.LCFI29:
	.cfi_restore 5
	.cfi_def_cfa 4, 4
	ret
	.cfi_endproc
.LFE9:
	.size	_ZN18SPageDirectoryInfo7AddressEPv, .-_ZN18SPageDirectoryInfo7AddressEPv
	.align 2
	.globl	_ZN18SPageDirectoryInfo10CopyKernelEv
	.type	_ZN18SPageDirectoryInfo10CopyKernelEv, @function
_ZN18SPageDirectoryInfo10CopyKernelEv:
.LFB10:
	.loc 1 396 0
	.cfi_startproc
	pushl	%ebp
.LCFI30:
	.cfi_def_cfa_offset 8
	.cfi_offset 5, -8
	movl	%esp, %ebp
.LCFI31:
	.cfi_def_cfa_register 5
	subl	$16, %esp
.LBB24:
.LBB25:
	.loc 1 397 0
	movl	$virt, %eax
	shrl	$22, %eax
	movl	%eax, -4(%ebp)
	jmp	.L91
.L92:
	.loc 1 399 0 discriminator 2
	movl	-4(%ebp), %eax
	movl	rootAddressSpace(,%eax,4), %ecx
	movl	8(%ebp), %eax
	movl	-4(%ebp), %edx
	movl	%ecx, (%eax,%edx,4)
	.loc 1 400 0 discriminator 2
	movl	8(%ebp), %eax
	movl	4096(%eax), %eax
	movl	-4(%ebp), %edx
	sall	$2, %edx
	addl	%eax, %edx
	movl	rootAddressSpace+4096, %eax
	movl	-4(%ebp), %ecx
	sall	$2, %ecx
	addl	%ecx, %eax
	movl	(%eax), %eax
	movl	%eax, (%edx)
	.loc 1 397 0 discriminator 2
	addl	$1, -4(%ebp)
.L91:
	.loc 1 397 0 is_stmt 0 discriminator 1
	cmpl	$1023, -4(%ebp)
	setle	%al
	testb	%al, %al
	jne	.L92
.LBE25:
	.loc 1 402 0 is_stmt 1
	movl	rootAddressSpace+4104, %edx
	movl	8(%ebp), %eax
	movl	%edx, 4104(%eax)
.LBE24:
	.loc 1 403 0
	leave
.LCFI32:
	.cfi_restore 5
	.cfi_def_cfa 4, 4
	ret
	.cfi_endproc
.LFE10:
	.size	_ZN18SPageDirectoryInfo10CopyKernelEv, .-_ZN18SPageDirectoryInfo10CopyKernelEv
.Letext0:
	.file 2 "runtime.h"
	.file 3 "mem_physical.h"
	.file 4 "mem_logical.h"
	.section	.note.GNU-stack,"",@progbits
