	.file	"tools.cpp"
	.text
.Ltext0:
	.align 2
	.globl	_ZN12CStringPrintC2Ev
	.type	_ZN12CStringPrintC2Ev, @function
_ZN12CStringPrintC2Ev:
.LFB8:
	.file 1 "tools.cpp"
	.loc 1 6 0
	.cfi_startproc
	pushl	%ebp
.LCFI0:
	.cfi_def_cfa_offset 8
	.cfi_offset 5, -8
	movl	%esp, %ebp
.LCFI1:
	.cfi_def_cfa_register 5
.LBB2:
	.loc 1 6 0
	movl	8(%ebp), %eax
	movl	$_ZTV12CStringPrint+8, (%eax)
.LBE2:
	.loc 1 9 0
	popl	%ebp
.LCFI2:
	.cfi_restore 5
	.cfi_def_cfa 4, 4
	ret
	.cfi_endproc
.LFE8:
	.size	_ZN12CStringPrintC2Ev, .-_ZN12CStringPrintC2Ev
	.globl	_ZN12CStringPrintC1Ev
	.set	_ZN12CStringPrintC1Ev,_ZN12CStringPrintC2Ev
	.align 2
	.globl	_ZN12CStringPrintD2Ev
	.type	_ZN12CStringPrintD2Ev, @function
_ZN12CStringPrintD2Ev:
.LFB11:
	.loc 1 11 0
	.cfi_startproc
	pushl	%ebp
.LCFI3:
	.cfi_def_cfa_offset 8
	.cfi_offset 5, -8
	movl	%esp, %ebp
.LCFI4:
	.cfi_def_cfa_register 5
	subl	$24, %esp
.LBB3:
	.loc 1 11 0
	movl	8(%ebp), %eax
	movl	$_ZTV12CStringPrint+8, (%eax)
.LBE3:
	.loc 1 14 0
	movl	$0, %eax
	andl	$1, %eax
	testl	%eax, %eax
	je	.L2
	.loc 1 14 0 is_stmt 0 discriminator 1
	movl	8(%ebp), %eax
	movl	%eax, (%esp)
	call	_ZdlPv
.L2:
	.loc 1 14 0
	leave
.LCFI5:
	.cfi_restore 5
	.cfi_def_cfa 4, 4
	ret
	.cfi_endproc
.LFE11:
	.size	_ZN12CStringPrintD2Ev, .-_ZN12CStringPrintD2Ev
	.globl	_ZN12CStringPrintD1Ev
	.set	_ZN12CStringPrintD1Ev,_ZN12CStringPrintD2Ev
	.align 2
	.globl	_ZN12CStringPrintD0Ev
	.type	_ZN12CStringPrintD0Ev, @function
_ZN12CStringPrintD0Ev:
.LFB13:
	.loc 1 11 0 is_stmt 1
	.cfi_startproc
	pushl	%ebp
.LCFI6:
	.cfi_def_cfa_offset 8
	.cfi_offset 5, -8
	movl	%esp, %ebp
.LCFI7:
	.cfi_def_cfa_register 5
	subl	$24, %esp
	.loc 1 14 0
	movl	8(%ebp), %eax
	movl	%eax, (%esp)
	call	_ZN12CStringPrintD1Ev
	movl	8(%ebp), %eax
	movl	%eax, (%esp)
	call	_ZdlPv
	leave
.LCFI8:
	.cfi_restore 5
	.cfi_def_cfa 4, 4
	ret
	.cfi_endproc
.LFE13:
	.size	_ZN12CStringPrintD0Ev, .-_ZN12CStringPrintD0Ev
	.align 2
	.globl	_ZN12CStringPrint5PrintEPKcz
	.type	_ZN12CStringPrint5PrintEPKcz, @function
_ZN12CStringPrint5PrintEPKcz:
.LFB14:
	.loc 1 17 0
	.cfi_startproc
	pushl	%ebp
.LCFI9:
	.cfi_def_cfa_offset 8
	.cfi_offset 5, -8
	movl	%esp, %ebp
.LCFI10:
	.cfi_def_cfa_register 5
	subl	$40, %esp
.LBB4:
	.loc 1 20 0
	leal	16(%ebp), %eax
	movl	%eax, -12(%ebp)
	.loc 1 21 0
	leal	-12(%ebp), %eax
	movl	%eax, 8(%esp)
	movl	12(%ebp), %eax
	movl	%eax, 4(%esp)
	movl	8(%ebp), %eax
	movl	%eax, (%esp)
	call	_ZN12CStringPrint9PrintListEPKcRPc
.LBE4:
	.loc 1 23 0
	leave
.LCFI11:
	.cfi_restore 5
	.cfi_def_cfa 4, 4
	ret
	.cfi_endproc
.LFE14:
	.size	_ZN12CStringPrint5PrintEPKcz, .-_ZN12CStringPrint5PrintEPKcz
	.section	.rodata
.LC0:
	.string	"format != NULL"
.LC1:
	.string	"tools.cpp"
	.align 4
.LC2:
	.string	"ASSERTION FAILURE (%s:%i): %s\n"
	.text
	.align 2
	.globl	_ZN12CStringPrint9PrintListEPKcRPc
	.type	_ZN12CStringPrint9PrintListEPKcRPc, @function
_ZN12CStringPrint9PrintListEPKcRPc:
.LFB15:
	.loc 1 26 0
	.cfi_startproc
	pushl	%ebp
.LCFI12:
	.cfi_def_cfa_offset 8
	.cfi_offset 5, -8
	movl	%esp, %ebp
.LCFI13:
	.cfi_def_cfa_register 5
	subl	$40, %esp
.LBB5:
	.loc 1 29 0
	cmpl	$0, 12(%ebp)
	jne	.L9
	.loc 1 29 0 is_stmt 0 discriminator 1
	movl	$.LC0, 12(%esp)
	movl	$29, 8(%esp)
	movl	$.LC1, 4(%esp)
	movl	$.LC2, (%esp)
	call	_Z7kprintfPKcz
.L9:
	.loc 1 31 0 is_stmt 1
	movl	$0, -12(%ebp)
	jmp	.L10
.L12:
	.loc 1 33 0
	movl	-12(%ebp), %edx
	movl	12(%ebp), %eax
	addl	%edx, %eax
	movzbl	(%eax), %eax
	cmpb	$37, %al
	jne	.L11
	.loc 1 35 0
	movl	-12(%ebp), %eax
	leal	1(%eax), %edx
	movl	12(%ebp), %eax
	addl	%edx, %eax
	movl	%eax, 8(%esp)
	movl	16(%ebp), %eax
	movl	%eax, 4(%esp)
	movl	8(%ebp), %eax
	movl	%eax, (%esp)
	call	_ZN12CStringPrint11ParseFormatERPcPKc
	addl	$1, %eax
	addl	%eax, -12(%ebp)
	jmp	.L10
.L11:
	.loc 1 39 0
	movl	8(%ebp), %eax
	movl	(%eax), %eax
	addl	$8, %eax
	movl	(%eax), %eax
	movl	-12(%ebp), %ecx
	movl	12(%ebp), %edx
	addl	%ecx, %edx
	addl	$1, -12(%ebp)
	movl	$1, 8(%esp)
	movl	%edx, 4(%esp)
	movl	8(%ebp), %edx
	movl	%edx, (%esp)
	call	*%eax
.L10:
	.loc 1 31 0 discriminator 1
	movl	-12(%ebp), %edx
	movl	12(%ebp), %eax
	addl	%edx, %eax
	movzbl	(%eax), %eax
	testb	%al, %al
	setne	%al
	testb	%al, %al
	jne	.L12
.LBE5:
	.loc 1 42 0
	leave
.LCFI14:
	.cfi_restore 5
	.cfi_def_cfa 4, 4
	ret
	.cfi_endproc
.LFE15:
	.size	_ZN12CStringPrint9PrintListEPKcRPc, .-_ZN12CStringPrint9PrintListEPKcRPc
	.section	.rodata
.LC4:
	.string	"0"
.LC5:
	.string	" "
.LC6:
	.string	"%"
.LC3:
	.string	"0123456789ABCDEF"
	.text
	.align 2
	.globl	_ZN12CStringPrint11ParseFormatERPcPKc
	.type	_ZN12CStringPrint11ParseFormatERPcPKc, @function
_ZN12CStringPrint11ParseFormatERPcPKc:
.LFB16:
	.loc 1 45 0
	.cfi_startproc
	pushl	%ebp
.LCFI15:
	.cfi_def_cfa_offset 8
	.cfi_offset 5, -8
	movl	%esp, %ebp
.LCFI16:
	.cfi_def_cfa_register 5
	pushl	%ebx
	subl	$100, %esp
	.cfi_offset 3, -12
.LBB6:
	.loc 1 49 0
	movl	$0, -20(%ebp)
	.loc 1 51 0
	movl	$0, -12(%ebp)
	.loc 1 52 0
	movb	$0, -13(%ebp)
.L36:
.LBB7:
.LBB8:
	.loc 1 54 0
	movl	-12(%ebp), %edx
	movl	16(%ebp), %eax
	addl	%edx, %eax
	movzbl	(%eax), %eax
	movsbl	%al, %eax
	cmpl	$105, %eax
	je	.L17
	cmpl	$105, %eax
	jg	.L20
	cmpl	$37, %eax
	je	.L15
	cmpl	$46, %eax
	je	.L16
	jmp	.L14
.L20:
	cmpl	$115, %eax
	je	.L18
	cmpl	$120, %eax
	je	.L19
	jmp	.L14
.L16:
.LBB9:
	.loc 1 58 0
	addl	$1, -12(%ebp)
	.loc 1 59 0
	jmp	.L21
.L22:
	.loc 1 61 0
	movl	-20(%ebp), %edx
	movl	%edx, %eax
	sall	$2, %eax
	addl	%edx, %eax
	addl	%eax, %eax
	movl	%eax, -20(%ebp)
	.loc 1 62 0
	movl	-12(%ebp), %edx
	movl	16(%ebp), %eax
	addl	%edx, %eax
	movzbl	(%eax), %eax
	movsbl	%al, %eax
	subl	$48, %eax
	addl	%eax, -20(%ebp)
	.loc 1 63 0
	addl	$1, -12(%ebp)
.L21:
	.loc 1 59 0 discriminator 1
	movl	-12(%ebp), %edx
	movl	16(%ebp), %eax
	addl	%edx, %eax
	movzbl	(%eax), %eax
	movsbl	%al, %eax
	movl	%eax, (%esp)
	call	_ZN12CStringPrint7IsDigitEc
	testb	%al, %al
	jne	.L22
	.loc 1 65 0
	jmp	.L23
.L17:
.LBB10:
	.loc 1 70 0
	movl	12(%ebp), %eax
	movl	(%eax), %eax
	leal	4(%eax), %ecx
	movl	12(%ebp), %edx
	movl	%ecx, (%edx)
	movl	(%eax), %eax
	movl	%eax, -24(%ebp)
	.loc 1 74 0
	movl	$32, -28(%ebp)
	.loc 1 75 0
	cmpl	$0, -24(%ebp)
	jne	.L25
	.loc 1 76 0
	subl	$1, -28(%ebp)
	leal	-76(%ebp), %edx
	movl	-28(%ebp), %eax
	addl	%edx, %eax
	movb	$48, (%eax)
	.loc 1 77 0
	jmp	.L25
.L26:
	.loc 1 79 0
	subl	$1, -28(%ebp)
	movl	-24(%ebp), %ecx
	movl	$1717986919, %edx
	movl	%ecx, %eax
	imull	%edx
	sarl	$2, %edx
	movl	%ecx, %eax
	sarl	$31, %eax
	subl	%eax, %edx
	movl	%edx, %eax
	sall	$2, %eax
	addl	%edx, %eax
	addl	%eax, %eax
	movl	%ecx, %edx
	subl	%eax, %edx
	movzbl	.LC3(%edx), %eax
	leal	-76(%ebp), %ecx
	movl	-28(%ebp), %edx
	addl	%ecx, %edx
	movb	%al, (%edx)
	.loc 1 80 0
	movl	-24(%ebp), %ecx
	movl	$1717986919, %edx
	movl	%ecx, %eax
	imull	%edx
	sarl	$2, %edx
	movl	%ecx, %eax
	sarl	$31, %eax
	movl	%edx, %ecx
	subl	%eax, %ecx
	movl	%ecx, %eax
	movl	%eax, -24(%ebp)
.L25:
	.loc 1 77 0 discriminator 1
	cmpl	$0, -24(%ebp)
	setne	%al
	testb	%al, %al
	jne	.L26
	.loc 1 82 0
	movl	-28(%ebp), %eax
	subl	$32, %eax
	addl	%eax, -20(%ebp)
	.loc 1 83 0
	jmp	.L27
.L28:
	.loc 1 85 0
	movl	8(%ebp), %eax
	movl	(%eax), %eax
	addl	$8, %eax
	movl	(%eax), %eax
	movl	$1, 8(%esp)
	movl	$.LC4, 4(%esp)
	movl	8(%ebp), %edx
	movl	%edx, (%esp)
	call	*%eax
	.loc 1 86 0
	subl	$1, -20(%ebp)
.L27:
	.loc 1 83 0 discriminator 1
	cmpl	$0, -20(%ebp)
	setg	%al
	testb	%al, %al
	jne	.L28
	.loc 1 88 0
	movl	8(%ebp), %eax
	movl	(%eax), %eax
	addl	$8, %eax
	movl	(%eax), %eax
	movl	$32, %edx
	subl	-28(%ebp), %edx
	movl	-28(%ebp), %ecx
	leal	-76(%ebp), %ebx
	addl	%ebx, %ecx
	movl	%edx, 8(%esp)
	movl	%ecx, 4(%esp)
	movl	8(%ebp), %edx
	movl	%edx, (%esp)
	call	*%eax
.LBE10:
	.loc 1 90 0
	addl	$1, -12(%ebp)
	.loc 1 91 0
	movb	$1, -13(%ebp)
	.loc 1 92 0
	jmp	.L23
.L19:
.LBB11:
	.loc 1 95 0
	movl	12(%ebp), %eax
	movl	(%eax), %eax
	leal	4(%eax), %ecx
	movl	12(%ebp), %edx
	movl	%ecx, (%edx)
	movl	(%eax), %eax
	movl	%eax, -32(%ebp)
	.loc 1 99 0
	movl	$32, -36(%ebp)
	.loc 1 100 0
	cmpl	$0, -32(%ebp)
	jne	.L30
	.loc 1 101 0
	subl	$1, -36(%ebp)
	leal	-76(%ebp), %edx
	movl	-36(%ebp), %eax
	addl	%edx, %eax
	movb	$48, (%eax)
	.loc 1 102 0
	jmp	.L30
.L31:
	.loc 1 104 0
	subl	$1, -36(%ebp)
	movl	-32(%ebp), %eax
	andl	$15, %eax
	movzbl	.LC3(%eax), %eax
	leal	-76(%ebp), %ecx
	movl	-36(%ebp), %edx
	addl	%ecx, %edx
	movb	%al, (%edx)
	.loc 1 105 0
	shrl	$4, -32(%ebp)
.L30:
	.loc 1 102 0 discriminator 1
	cmpl	$0, -32(%ebp)
	setne	%al
	testb	%al, %al
	jne	.L31
	.loc 1 107 0
	movl	-36(%ebp), %eax
	subl	$32, %eax
	addl	%eax, -20(%ebp)
	.loc 1 108 0
	jmp	.L32
.L33:
	.loc 1 110 0
	movl	8(%ebp), %eax
	movl	(%eax), %eax
	addl	$8, %eax
	movl	(%eax), %eax
	movl	$1, 8(%esp)
	movl	$.LC4, 4(%esp)
	movl	8(%ebp), %edx
	movl	%edx, (%esp)
	call	*%eax
	.loc 1 111 0
	subl	$1, -20(%ebp)
.L32:
	.loc 1 108 0 discriminator 1
	cmpl	$0, -20(%ebp)
	setg	%al
	testb	%al, %al
	jne	.L33
	.loc 1 113 0
	movl	8(%ebp), %eax
	movl	(%eax), %eax
	addl	$8, %eax
	movl	(%eax), %eax
	movl	$32, %edx
	subl	-36(%ebp), %edx
	movl	-36(%ebp), %ecx
	leal	-76(%ebp), %ebx
	addl	%ebx, %ecx
	movl	%edx, 8(%esp)
	movl	%ecx, 4(%esp)
	movl	8(%ebp), %edx
	movl	%edx, (%esp)
	call	*%eax
.LBE11:
	.loc 1 115 0
	addl	$1, -12(%ebp)
	.loc 1 116 0
	movb	$1, -13(%ebp)
	.loc 1 117 0
	jmp	.L23
.L18:
.LBB12:
	.loc 1 120 0
	movl	12(%ebp), %eax
	movl	(%eax), %eax
	leal	4(%eax), %ecx
	movl	12(%ebp), %edx
	movl	%ecx, (%edx)
	movl	(%eax), %eax
	movl	%eax, -40(%ebp)
	.loc 1 121 0
	movl	-40(%ebp), %eax
	movl	%eax, (%esp)
	call	_ZN12CStringPrint8LengthOfEPKc
	movl	%eax, -44(%ebp)
	.loc 1 122 0
	movl	-44(%ebp), %eax
	subl	%eax, -20(%ebp)
	.loc 1 123 0
	jmp	.L34
.L35:
	.loc 1 125 0
	movl	8(%ebp), %eax
	movl	(%eax), %eax
	addl	$8, %eax
	movl	(%eax), %eax
	movl	$1, 8(%esp)
	movl	$.LC5, 4(%esp)
	movl	8(%ebp), %edx
	movl	%edx, (%esp)
	call	*%eax
	.loc 1 126 0
	subl	$1, -20(%ebp)
.L34:
	.loc 1 123 0 discriminator 1
	cmpl	$0, -20(%ebp)
	setg	%al
	testb	%al, %al
	jne	.L35
	.loc 1 128 0
	movl	8(%ebp), %eax
	movl	(%eax), %eax
	addl	$8, %eax
	movl	(%eax), %ebx
	movl	-40(%ebp), %eax
	movl	%eax, (%esp)
	call	_ZN12CStringPrint8LengthOfEPKc
	movl	%eax, 8(%esp)
	movl	-40(%ebp), %eax
	movl	%eax, 4(%esp)
	movl	8(%ebp), %eax
	movl	%eax, (%esp)
	call	*%ebx
.LBE12:
	.loc 1 130 0
	addl	$1, -12(%ebp)
	.loc 1 131 0
	movb	$1, -13(%ebp)
	.loc 1 132 0
	jmp	.L23
.L15:
	.loc 1 134 0
	movl	8(%ebp), %eax
	movl	(%eax), %eax
	addl	$8, %eax
	movl	(%eax), %eax
	movl	$1, 8(%esp)
	movl	$.LC6, 4(%esp)
	movl	8(%ebp), %edx
	movl	%edx, (%esp)
	call	*%eax
	.loc 1 135 0
	addl	$1, -12(%ebp)
	.loc 1 136 0
	movb	$1, -13(%ebp)
	.loc 1 137 0
	jmp	.L23
.L14:
	.loc 1 141 0
	movl	8(%ebp), %eax
	movl	(%eax), %eax
	addl	$8, %eax
	movl	(%eax), %eax
	movl	$1, 8(%esp)
	movl	$.LC6, 4(%esp)
	movl	8(%ebp), %edx
	movl	%edx, (%esp)
	call	*%eax
	.loc 1 142 0
	movb	$1, -13(%ebp)
	.loc 1 143 0
	nop
.L23:
.LBE9:
.LBE8:
.LBE7:
	.loc 1 145 0
	movzbl	-13(%ebp), %eax
	xorl	$1, %eax
	.loc 1 53 0
	testb	%al, %al
	jne	.L36
	.loc 1 146 0
	movl	-12(%ebp), %eax
.LBE6:
	.loc 1 147 0
	addl	$100, %esp
	popl	%ebx
	.cfi_restore 3
	popl	%ebp
.LCFI17:
	.cfi_restore 5
	.cfi_def_cfa 4, 4
	ret
	.cfi_endproc
.LFE16:
	.size	_ZN12CStringPrint11ParseFormatERPcPKc, .-_ZN12CStringPrint11ParseFormatERPcPKc
	.align 2
	.globl	_ZN12CStringPrint7IsDigitEc
	.type	_ZN12CStringPrint7IsDigitEc, @function
_ZN12CStringPrint7IsDigitEc:
.LFB17:
	.loc 1 150 0
	.cfi_startproc
	pushl	%ebp
.LCFI18:
	.cfi_def_cfa_offset 8
	.cfi_offset 5, -8
	movl	%esp, %ebp
.LCFI19:
	.cfi_def_cfa_register 5
	subl	$4, %esp
	movl	8(%ebp), %eax
	movb	%al, -4(%ebp)
	.loc 1 151 0
	cmpb	$47, -4(%ebp)
	jle	.L39
	.loc 1 151 0 is_stmt 0 discriminator 1
	cmpb	$57, -4(%ebp)
	jg	.L39
	.loc 1 151 0 discriminator 3
	movl	$1, %eax
	jmp	.L40
.L39:
	.loc 1 151 0 discriminator 2
	movl	$0, %eax
.L40:
	.loc 1 152 0 is_stmt 1 discriminator 4
	leave
.LCFI20:
	.cfi_restore 5
	.cfi_def_cfa 4, 4
	ret
	.cfi_endproc
.LFE17:
	.size	_ZN12CStringPrint7IsDigitEc, .-_ZN12CStringPrint7IsDigitEc
	.align 2
	.globl	_ZN12CStringPrint8LengthOfEPKc
	.type	_ZN12CStringPrint8LengthOfEPKc, @function
_ZN12CStringPrint8LengthOfEPKc:
.LFB18:
	.loc 1 155 0
	.cfi_startproc
	pushl	%ebp
.LCFI21:
	.cfi_def_cfa_offset 8
	.cfi_offset 5, -8
	movl	%esp, %ebp
.LCFI22:
	.cfi_def_cfa_register 5
	subl	$16, %esp
.LBB13:
	.loc 1 157 0
	movl	$0, -4(%ebp)
	jmp	.L43
.L44:
	.loc 1 157 0 is_stmt 0 discriminator 2
	addl	$1, -4(%ebp)
.L43:
	.loc 1 157 0 discriminator 1
	movl	-4(%ebp), %edx
	movl	8(%ebp), %eax
	addl	%edx, %eax
	movzbl	(%eax), %eax
	testb	%al, %al
	setne	%al
	testb	%al, %al
	jne	.L44
	.loc 1 158 0 is_stmt 1
	movl	-4(%ebp), %eax
.LBE13:
	.loc 1 159 0
	leave
.LCFI23:
	.cfi_restore 5
	.cfi_def_cfa 4, 4
	ret
	.cfi_endproc
.LFE18:
	.size	_ZN12CStringPrint8LengthOfEPKc, .-_ZN12CStringPrint8LengthOfEPKc
	.weak	_ZTV12CStringPrint
	.section	.rodata._ZTV12CStringPrint,"aG",@progbits,_ZTV12CStringPrint,comdat
	.align 8
	.type	_ZTV12CStringPrint, @object
	.size	_ZTV12CStringPrint, 20
_ZTV12CStringPrint:
	.long	0
	.long	0
	.long	_ZN12CStringPrintD1Ev
	.long	_ZN12CStringPrintD0Ev
	.long	__cxa_pure_virtual
	.text
.Letext0:
	.file 2 "/usr/lib/gcc/x86_64-unknown-linux-gnu/4.7.1/include/stdarg.h"
	.file 3 "tools.h"
	.section	.note.GNU-stack,"",@progbits
